In archive target/riscv64gc-unknown-none-elf/debug/libtest_atomic.a:

test_atomic-328487f3e620fb4e.3mjc9jb8w3hq1qi7.rcgu.o:     file format elf64-littleriscv


Disassembly of section .text.test_atomic:

0000000000000000 <test_atomic>:
   0:	711d                	addi	sp,sp,-96
   2:	ec86                	sd	ra,88(sp)
   4:	e8a2                	sd	s0,80(sp)
   6:	1080                	addi	s0,sp,96
   8:	4501                	li	a0,0
   a:	00000097          	auipc	ra,0x0
   e:	000080e7          	jalr	ra # a <test_atomic+0xa>
  12:	fea407a3          	sb	a0,-17(s0)
  16:	fea40423          	sb	a0,-24(s0)
  1a:	a009                	j	1c <test_atomic+0x1c>
  1c:	4509                	li	a0,2
  1e:	fea40523          	sb	a0,-22(s0)
  22:	4581                	li	a1,0
  24:	fe840613          	addi	a2,s0,-24
  28:	fea43023          	sd	a0,-32(s0)
  2c:	8532                	mv	a0,a2
  2e:	fcb43c23          	sd	a1,-40(s0)
  32:	fd843603          	ld	a2,-40(s0)
  36:	fe043683          	ld	a3,-32(s0)
  3a:	00000097          	auipc	ra,0x0
  3e:	000080e7          	jalr	ra # 3a <test_atomic+0x3a>
  42:	a009                	j	44 <test_atomic+0x44>
  44:	450d                	li	a0,3
  46:	fea405a3          	sb	a0,-21(s0)
  4a:	4581                	li	a1,0
  4c:	fe840613          	addi	a2,s0,-24
  50:	fca43823          	sd	a0,-48(s0)
  54:	8532                	mv	a0,a2
  56:	fcb43423          	sd	a1,-56(s0)
  5a:	fc843603          	ld	a2,-56(s0)
  5e:	fd043683          	ld	a3,-48(s0)
  62:	00000097          	auipc	ra,0x0
  66:	000080e7          	jalr	ra # 62 <test_atomic+0x62>
  6a:	a009                	j	6c <test_atomic+0x6c>
  6c:	4501                	li	a0,0
  6e:	fea40623          	sb	a0,-20(s0)
  72:	fe840593          	addi	a1,s0,-24
  76:	fca43023          	sd	a0,-64(s0)
  7a:	852e                	mv	a0,a1
  7c:	fc043583          	ld	a1,-64(s0)
  80:	fc043603          	ld	a2,-64(s0)
  84:	fc043683          	ld	a3,-64(s0)
  88:	00000097          	auipc	ra,0x0
  8c:	000080e7          	jalr	ra # 88 <test_atomic+0x88>
  90:	a009                	j	92 <test_atomic+0x92>
  92:	4505                	li	a0,1
  94:	fea406a3          	sb	a0,-19(s0)
  98:	4581                	li	a1,0
  9a:	fe840613          	addi	a2,s0,-24
  9e:	faa43c23          	sd	a0,-72(s0)
  a2:	8532                	mv	a0,a2
  a4:	fab43823          	sd	a1,-80(s0)
  a8:	fb043603          	ld	a2,-80(s0)
  ac:	fb843683          	ld	a3,-72(s0)
  b0:	00000097          	auipc	ra,0x0
  b4:	000080e7          	jalr	ra # b0 <test_atomic+0xb0>
  b8:	a009                	j	ba <test_atomic+0xba>
  ba:	4511                	li	a0,4
  bc:	fea40723          	sb	a0,-18(s0)
  c0:	4581                	li	a1,0
  c2:	fe840613          	addi	a2,s0,-24
  c6:	faa43423          	sd	a0,-88(s0)
  ca:	8532                	mv	a0,a2
  cc:	fab43023          	sd	a1,-96(s0)
  d0:	fa043603          	ld	a2,-96(s0)
  d4:	fa843683          	ld	a3,-88(s0)
  d8:	00000097          	auipc	ra,0x0
  dc:	000080e7          	jalr	ra # d8 <test_atomic+0xd8>
  e0:	a009                	j	e2 <test_atomic+0xe2>
  e2:	6446                	ld	s0,80(sp)
  e4:	60e6                	ld	ra,88(sp)
  e6:	6125                	addi	sp,sp,96
  e8:	8082                	ret

Disassembly of section .text.eh_personality:

0000000000000000 <eh_personality>:
   0:	1141                	addi	sp,sp,-16
   2:	e406                	sd	ra,8(sp)
   4:	e022                	sd	s0,0(sp)
   6:	0800                	addi	s0,sp,16
   8:	6402                	ld	s0,0(sp)
   a:	60a2                	ld	ra,8(sp)
   c:	0141                	addi	sp,sp,16
   e:	8082                	ret

Disassembly of section .text.rust_begin_unwind:

0000000000000000 <rust_begin_unwind>:
   0:	1101                	addi	sp,sp,-32
   2:	ec06                	sd	ra,24(sp)
   4:	e822                	sd	s0,16(sp)
   6:	1000                	addi	s0,sp,32
   8:	fea43423          	sd	a0,-24(s0)
   c:	a009                	j	e <rust_begin_unwind+0xe>
   e:	a001                	j	e <rust_begin_unwind+0xe>

test_atomic-328487f3e620fb4e.4kiy8ifcqse91knz.rcgu.o:     file format elf64-littleriscv


Disassembly of section .text._ZN4core4sync6atomic10AtomicBool16compare_and_swap17h7c13f0bc4fdd2bafE:

0000000000000000 <_ZN4core4sync6atomic10AtomicBool16compare_and_swap17h7c13f0bc4fdd2bafE>:
   0:	7159                	addi	sp,sp,-112
   2:	f486                	sd	ra,104(sp)
   4:	f0a2                	sd	s0,96(sp)
   6:	1880                	addi	s0,sp,112
   8:	fea43023          	sd	a0,-32(s0)
   c:	feb405a3          	sb	a1,-21(s0)
  10:	fec40623          	sb	a2,-20(s0)
  14:	fed406a3          	sb	a3,-19(s0)
  18:	fca43423          	sd	a0,-56(s0)
  1c:	8536                	mv	a0,a3
  1e:	fcd43023          	sd	a3,-64(s0)
  22:	fac43c23          	sd	a2,-72(s0)
  26:	fab43823          	sd	a1,-80(s0)
  2a:	00000097          	auipc	ra,0x0
  2e:	000080e7          	jalr	ra # 2a <_ZN4core4sync6atomic10AtomicBool16compare_and_swap17h7c13f0bc4fdd2bafE+0x2a>
  32:	fc043583          	ld	a1,-64(s0)
  36:	fb843603          	ld	a2,-72(s0)
  3a:	fb043683          	ld	a3,-80(s0)
  3e:	0ff57713          	andi	a4,a0,255
  42:	fab43423          	sd	a1,-88(s0)
  46:	fac43023          	sd	a2,-96(s0)
  4a:	f8d43c23          	sd	a3,-104(s0)
  4e:	f8e43823          	sd	a4,-112(s0)
  52:	a009                	j	54 <_ZN4core4sync6atomic10AtomicBool16compare_and_swap17h7c13f0bc4fdd2bafE+0x54>
  54:	fc843503          	ld	a0,-56(s0)
  58:	f9843583          	ld	a1,-104(s0)
  5c:	fa043603          	ld	a2,-96(s0)
  60:	fa843683          	ld	a3,-88(s0)
  64:	f9043703          	ld	a4,-112(s0)
  68:	00000097          	auipc	ra,0x0
  6c:	000080e7          	jalr	ra # 68 <_ZN4core4sync6atomic10AtomicBool16compare_and_swap17h7c13f0bc4fdd2bafE+0x68>
  70:	fca40c23          	sb	a0,-40(s0)
  74:	fcb40ca3          	sb	a1,-39(s0)
  78:	a009                	j	7a <_ZN4core4sync6atomic10AtomicBool16compare_and_swap17h7c13f0bc4fdd2bafE+0x7a>
  7a:	fd844503          	lbu	a0,-40(s0)
  7e:	8905                	andi	a0,a0,1
  80:	4581                	li	a1,0
  82:	00b50e63          	beq	a0,a1,9e <_ZN4core4sync6atomic10AtomicBool16compare_and_swap17h7c13f0bc4fdd2bafE+0x9e>
  86:	a009                	j	88 <_ZN4core4sync6atomic10AtomicBool16compare_and_swap17h7c13f0bc4fdd2bafE+0x88>
  88:	fd940503          	lb	a0,-39(s0)
  8c:	fea40723          	sb	a0,-18(s0)
  90:	fca40ba3          	sb	a0,-41(s0)
  94:	a821                	j	ac <_ZN4core4sync6atomic10AtomicBool16compare_and_swap17h7c13f0bc4fdd2bafE+0xac>
  96:	00000097          	auipc	ra,0x0
  9a:	000080e7          	jalr	ra # 96 <_ZN4core4sync6atomic10AtomicBool16compare_and_swap17h7c13f0bc4fdd2bafE+0x96>
  9e:	fd940503          	lb	a0,-39(s0)
  a2:	fea407a3          	sb	a0,-17(s0)
  a6:	fca40ba3          	sb	a0,-41(s0)
  aa:	a009                	j	ac <_ZN4core4sync6atomic10AtomicBool16compare_and_swap17h7c13f0bc4fdd2bafE+0xac>
  ac:	fd744503          	lbu	a0,-41(s0)
  b0:	7406                	ld	s0,96(sp)
  b2:	70a6                	ld	ra,104(sp)
  b4:	6165                	addi	sp,sp,112
  b6:	8082                	ret

Disassembly of section .text._ZN4core4sync6atomic10AtomicBool16compare_exchange17h5204af36571b8e13E:

0000000000000000 <_ZN4core4sync6atomic10AtomicBool16compare_exchange17h5204af36571b8e13E>:
   0:	7119                	addi	sp,sp,-128
   2:	fc86                	sd	ra,120(sp)
   4:	f8a2                	sd	s0,112(sp)
   6:	0100                	addi	s0,sp,128
   8:	feb40523          	sb	a1,-22(s0)
   c:	fea43023          	sd	a0,-32(s0)
  10:	fec405a3          	sb	a2,-21(s0)
  14:	fed40623          	sb	a3,-20(s0)
  18:	fee406a3          	sb	a4,-19(s0)
  1c:	fce43423          	sd	a4,-56(s0)
  20:	fcd43023          	sd	a3,-64(s0)
  24:	fac43c23          	sd	a2,-72(s0)
  28:	fab43823          	sd	a1,-80(s0)
  2c:	00000097          	auipc	ra,0x0
  30:	000080e7          	jalr	ra # 2c <_ZN4core4sync6atomic10AtomicBool16compare_exchange17h5204af36571b8e13E+0x2c>
  34:	fc843583          	ld	a1,-56(s0)
  38:	fc043603          	ld	a2,-64(s0)
  3c:	fb843683          	ld	a3,-72(s0)
  40:	fb043703          	ld	a4,-80(s0)
  44:	fab43423          	sd	a1,-88(s0)
  48:	fac43023          	sd	a2,-96(s0)
  4c:	f8d43c23          	sd	a3,-104(s0)
  50:	f8e43823          	sd	a4,-112(s0)
  54:	f8a43423          	sd	a0,-120(s0)
  58:	a009                	j	5a <_ZN4core4sync6atomic10AtomicBool16compare_exchange17h5204af36571b8e13E+0x5a>
  5a:	f8843503          	ld	a0,-120(s0)
  5e:	f9043583          	ld	a1,-112(s0)
  62:	f9843603          	ld	a2,-104(s0)
  66:	fa043683          	ld	a3,-96(s0)
  6a:	fa843703          	ld	a4,-88(s0)
  6e:	00000097          	auipc	ra,0x0
  72:	000080e7          	jalr	ra # 6e <_ZN4core4sync6atomic10AtomicBool16compare_exchange17h5204af36571b8e13E+0x6e>
  76:	fca40c23          	sb	a0,-40(s0)
  7a:	fcb40ca3          	sb	a1,-39(s0)
  7e:	a009                	j	80 <_ZN4core4sync6atomic10AtomicBool16compare_exchange17h5204af36571b8e13E+0x80>
  80:	fd844503          	lbu	a0,-40(s0)
  84:	8905                	andi	a0,a0,1
  86:	4581                	li	a1,0
  88:	02b50363          	beq	a0,a1,ae <_ZN4core4sync6atomic10AtomicBool16compare_exchange17h5204af36571b8e13E+0xae>
  8c:	a009                	j	8e <_ZN4core4sync6atomic10AtomicBool16compare_exchange17h5204af36571b8e13E+0x8e>
  8e:	4505                	li	a0,1
  90:	fca40823          	sb	a0,-48(s0)
  94:	fd944503          	lbu	a0,-39(s0)
  98:	fea40723          	sb	a0,-18(s0)
  9c:	00a03533          	snez	a0,a0
  a0:	fca408a3          	sb	a0,-47(s0)
  a4:	a00d                	j	c6 <_ZN4core4sync6atomic10AtomicBool16compare_exchange17h5204af36571b8e13E+0xc6>
  a6:	00000097          	auipc	ra,0x0
  aa:	000080e7          	jalr	ra # a6 <_ZN4core4sync6atomic10AtomicBool16compare_exchange17h5204af36571b8e13E+0xa6>
  ae:	4501                	li	a0,0
  b0:	fca40823          	sb	a0,-48(s0)
  b4:	fd944503          	lbu	a0,-39(s0)
  b8:	fea407a3          	sb	a0,-17(s0)
  bc:	00a03533          	snez	a0,a0
  c0:	fca408a3          	sb	a0,-47(s0)
  c4:	a009                	j	c6 <_ZN4core4sync6atomic10AtomicBool16compare_exchange17h5204af36571b8e13E+0xc6>
  c6:	fd044503          	lbu	a0,-48(s0)
  ca:	fd140583          	lb	a1,-47(s0)
  ce:	7446                	ld	s0,112(sp)
  d0:	70e6                	ld	ra,120(sp)
  d2:	6109                	addi	sp,sp,128
  d4:	8082                	ret

Disassembly of section .text._ZN4core4sync6atomic10AtomicBool3new17hfafa3ef071f52401E:

0000000000000000 <_ZN4core4sync6atomic10AtomicBool3new17hfafa3ef071f52401E>:
   0:	7179                	addi	sp,sp,-48
   2:	f406                	sd	ra,40(sp)
   4:	f022                	sd	s0,32(sp)
   6:	1800                	addi	s0,sp,48
   8:	fea407a3          	sb	a0,-17(s0)
   c:	fea43023          	sd	a0,-32(s0)
  10:	00000097          	auipc	ra,0x0
  14:	000080e7          	jalr	ra # 10 <_ZN4core4sync6atomic10AtomicBool3new17hfafa3ef071f52401E+0x10>
  18:	fe043583          	ld	a1,-32(s0)
  1c:	fca43c23          	sd	a0,-40(s0)
  20:	a009                	j	22 <_ZN4core4sync6atomic10AtomicBool3new17hfafa3ef071f52401E+0x22>
  22:	fd843503          	ld	a0,-40(s0)
  26:	fea40423          	sb	a0,-24(s0)
  2a:	7402                	ld	s0,32(sp)
  2c:	70a2                	ld	ra,40(sp)
  2e:	6145                	addi	sp,sp,48
  30:	8082                	ret

Disassembly of section .text._ZN4core4sync6atomic26strongest_failure_ordering17hdd991fa82c7f72c9E:

0000000000000000 <_ZN4core4sync6atomic26strongest_failure_ordering17hdd991fa82c7f72c9E>:
   0:	1101                	addi	sp,sp,-32
   2:	ec06                	sd	ra,24(sp)
   4:	e822                	sd	s0,16(sp)
   6:	1000                	addi	s0,sp,32
   8:	fea40723          	sb	a0,-18(s0)
   c:	85aa                	mv	a1,a0
   e:	0ff57513          	andi	a0,a0,255
  12:	4601                	li	a2,0
  14:	fea43023          	sd	a0,-32(s0)
  18:	04c50263          	beq	a0,a2,5c <_ZN4core4sync6atomic26strongest_failure_ordering17hdd991fa82c7f72c9E+0x5c>
  1c:	a009                	j	1e <_ZN4core4sync6atomic26strongest_failure_ordering17hdd991fa82c7f72c9E+0x1e>
  1e:	4505                	li	a0,1
  20:	fe043583          	ld	a1,-32(s0)
  24:	02a58863          	beq	a1,a0,54 <_ZN4core4sync6atomic26strongest_failure_ordering17hdd991fa82c7f72c9E+0x54>
  28:	a009                	j	2a <_ZN4core4sync6atomic26strongest_failure_ordering17hdd991fa82c7f72c9E+0x2a>
  2a:	4509                	li	a0,2
  2c:	fe043583          	ld	a1,-32(s0)
  30:	02a58e63          	beq	a1,a0,6c <_ZN4core4sync6atomic26strongest_failure_ordering17hdd991fa82c7f72c9E+0x6c>
  34:	a009                	j	36 <_ZN4core4sync6atomic26strongest_failure_ordering17hdd991fa82c7f72c9E+0x36>
  36:	450d                	li	a0,3
  38:	fe043583          	ld	a1,-32(s0)
  3c:	00a58463          	beq	a1,a0,44 <_ZN4core4sync6atomic26strongest_failure_ordering17hdd991fa82c7f72c9E+0x44>
  40:	a009                	j	42 <_ZN4core4sync6atomic26strongest_failure_ordering17hdd991fa82c7f72c9E+0x42>
  42:	a00d                	j	64 <_ZN4core4sync6atomic26strongest_failure_ordering17hdd991fa82c7f72c9E+0x64>
  44:	4509                	li	a0,2
  46:	fea407a3          	sb	a0,-17(s0)
  4a:	a02d                	j	74 <_ZN4core4sync6atomic26strongest_failure_ordering17hdd991fa82c7f72c9E+0x74>
  4c:	00000097          	auipc	ra,0x0
  50:	000080e7          	jalr	ra # 4c <_ZN4core4sync6atomic26strongest_failure_ordering17hdd991fa82c7f72c9E+0x4c>
  54:	4501                	li	a0,0
  56:	fea407a3          	sb	a0,-17(s0)
  5a:	a829                	j	74 <_ZN4core4sync6atomic26strongest_failure_ordering17hdd991fa82c7f72c9E+0x74>
  5c:	4501                	li	a0,0
  5e:	fea407a3          	sb	a0,-17(s0)
  62:	a809                	j	74 <_ZN4core4sync6atomic26strongest_failure_ordering17hdd991fa82c7f72c9E+0x74>
  64:	4511                	li	a0,4
  66:	fea407a3          	sb	a0,-17(s0)
  6a:	a029                	j	74 <_ZN4core4sync6atomic26strongest_failure_ordering17hdd991fa82c7f72c9E+0x74>
  6c:	4509                	li	a0,2
  6e:	fea407a3          	sb	a0,-17(s0)
  72:	a009                	j	74 <_ZN4core4sync6atomic26strongest_failure_ordering17hdd991fa82c7f72c9E+0x74>
  74:	fef40503          	lb	a0,-17(s0)
  78:	6442                	ld	s0,16(sp)
  7a:	60e2                	ld	ra,24(sp)
  7c:	6105                	addi	sp,sp,32
  7e:	8082                	ret

test_atomic-328487f3e620fb4e.4vidraf5mqunp50r.rcgu.o:     file format elf64-littleriscv


Disassembly of section .text._ZN4core4cell19UnsafeCell$LT$T$GT$3get17hc6fbf9c21a32fcc8E:

0000000000000000 <_ZN4core4cell19UnsafeCell$LT$T$GT$3get17hc6fbf9c21a32fcc8E>:
   0:	1101                	addi	sp,sp,-32
   2:	ec06                	sd	ra,24(sp)
   4:	e822                	sd	s0,16(sp)
   6:	1000                	addi	s0,sp,32
   8:	fea43423          	sd	a0,-24(s0)
   c:	6442                	ld	s0,16(sp)
   e:	60e2                	ld	ra,24(sp)
  10:	6105                	addi	sp,sp,32
  12:	8082                	ret

Disassembly of section .text._ZN4core4cell19UnsafeCell$LT$T$GT$3new17he63e71cd0da52766E:

0000000000000000 <_ZN4core4cell19UnsafeCell$LT$T$GT$3new17he63e71cd0da52766E>:
   0:	1101                	addi	sp,sp,-32
   2:	ec06                	sd	ra,24(sp)
   4:	e822                	sd	s0,16(sp)
   6:	1000                	addi	s0,sp,32
   8:	fea40723          	sb	a0,-18(s0)
   c:	fea407a3          	sb	a0,-17(s0)
  10:	85aa                	mv	a1,a0
  12:	6442                	ld	s0,16(sp)
  14:	60e2                	ld	ra,24(sp)
  16:	6105                	addi	sp,sp,32
  18:	8082                	ret

test_atomic-328487f3e620fb4e.55qvhndur62rcq33.rcgu.o:     file format elf64-littleriscv


Disassembly of section .text._ZN4core4sync6atomic23atomic_compare_exchange17h761508490902fbf6E:

0000000000000000 <_ZN4core4sync6atomic23atomic_compare_exchange17h761508490902fbf6E>:
   0:	7119                	addi	sp,sp,-128
   2:	fc86                	sd	ra,120(sp)
   4:	f8a2                	sd	s0,112(sp)
   6:	0100                	addi	s0,sp,128
   8:	fea43023          	sd	a0,-32(s0)
   c:	fee406a3          	sb	a4,-19(s0)
  10:	fce40ca3          	sb	a4,-39(s0)
  14:	fec405a3          	sb	a2,-21(s0)
  18:	feb40523          	sb	a1,-22(s0)
  1c:	fed40623          	sb	a3,-20(s0)
  20:	fcd40c23          	sb	a3,-40(s0)
  24:	87b6                	mv	a5,a3
  26:	0ff6f693          	andi	a3,a3,255
  2a:	4801                	li	a6,0
  2c:	fca43023          	sd	a0,-64(s0)
  30:	fac43c23          	sd	a2,-72(s0)
  34:	fab43823          	sd	a1,-80(s0)
  38:	fad43423          	sd	a3,-88(s0)
  3c:	03068b63          	beq	a3,a6,72 <_ZN4core4sync6atomic23atomic_compare_exchange17h761508490902fbf6E+0x72>
  40:	a009                	j	42 <_ZN4core4sync6atomic23atomic_compare_exchange17h761508490902fbf6E+0x42>
  42:	4505                	li	a0,1
  44:	fa843583          	ld	a1,-88(s0)
  48:	04a58963          	beq	a1,a0,9a <_ZN4core4sync6atomic23atomic_compare_exchange17h761508490902fbf6E+0x9a>
  4c:	a009                	j	4e <_ZN4core4sync6atomic23atomic_compare_exchange17h761508490902fbf6E+0x4e>
  4e:	4509                	li	a0,2
  50:	fa843583          	ld	a1,-88(s0)
  54:	04a58963          	beq	a1,a0,a6 <_ZN4core4sync6atomic23atomic_compare_exchange17h761508490902fbf6E+0xa6>
  58:	a009                	j	5a <_ZN4core4sync6atomic23atomic_compare_exchange17h761508490902fbf6E+0x5a>
  5a:	450d                	li	a0,3
  5c:	fa843583          	ld	a1,-88(s0)
  60:	06a58163          	beq	a1,a0,c2 <_ZN4core4sync6atomic23atomic_compare_exchange17h761508490902fbf6E+0xc2>
  64:	a009                	j	66 <_ZN4core4sync6atomic23atomic_compare_exchange17h761508490902fbf6E+0x66>
  66:	4511                	li	a0,4
  68:	fa843583          	ld	a1,-88(s0)
  6c:	06a58963          	beq	a1,a0,de <_ZN4core4sync6atomic23atomic_compare_exchange17h761508490902fbf6E+0xde>
  70:	a039                	j	7e <_ZN4core4sync6atomic23atomic_compare_exchange17h761508490902fbf6E+0x7e>
  72:	4501                	li	a0,0
  74:	fd944583          	lbu	a1,-39(s0)
  78:	1ea58b63          	beq	a1,a0,26e <.LBB0_42+0x15c>
  7c:	a009                	j	7e <_ZN4core4sync6atomic23atomic_compare_exchange17h761508490902fbf6E+0x7e>
  7e:	fd944503          	lbu	a0,-39(s0)
  82:	4585                	li	a1,1
  84:	faa43023          	sd	a0,-96(s0)
  88:	48b50963          	beq	a0,a1,51a <.LBB0_72>
  8c:	a009                	j	8e <_ZN4core4sync6atomic23atomic_compare_exchange17h761508490902fbf6E+0x8e>
  8e:	450d                	li	a0,3
  90:	fa043583          	ld	a1,-96(s0)
  94:	46a58163          	beq	a1,a0,4f6 <.LBB0_70>
  98:	a0bd                	j	106 <.LBB0_41>
  9a:	4501                	li	a0,0
  9c:	fd944583          	lbu	a1,-39(s0)
  a0:	0ea58b63          	beq	a1,a0,196 <.LBB0_42+0x84>
  a4:	bfe9                	j	7e <_ZN4core4sync6atomic23atomic_compare_exchange17h761508490902fbf6E+0x7e>
  a6:	fd944503          	lbu	a0,-39(s0)
  aa:	4581                	li	a1,0
  ac:	f8a43c23          	sd	a0,-104(s0)
  b0:	28b50b63          	beq	a0,a1,346 <.LBB0_42+0x234>
  b4:	a009                	j	b6 <_ZN4core4sync6atomic23atomic_compare_exchange17h761508490902fbf6E+0xb6>
  b6:	4509                	li	a0,2
  b8:	f9843583          	ld	a1,-104(s0)
  bc:	06a58763          	beq	a1,a0,12a <.LBB0_42+0x18>
  c0:	bf7d                	j	7e <_ZN4core4sync6atomic23atomic_compare_exchange17h761508490902fbf6E+0x7e>
  c2:	fd944503          	lbu	a0,-39(s0)
  c6:	4581                	li	a1,0
  c8:	f8a43823          	sd	a0,-112(s0)
  cc:	2eb50363          	beq	a0,a1,3b2 <.LBB0_42+0x2a0>
  d0:	a009                	j	d2 <_ZN4core4sync6atomic23atomic_compare_exchange17h761508490902fbf6E+0xd2>
  d2:	4509                	li	a0,2
  d4:	f9043583          	ld	a1,-112(s0)
  d8:	12a58563          	beq	a1,a0,202 <.LBB0_42+0xf0>
  dc:	b74d                	j	7e <_ZN4core4sync6atomic23atomic_compare_exchange17h761508490902fbf6E+0x7e>
  de:	fd944503          	lbu	a0,-39(s0)
  e2:	4581                	li	a1,0
  e4:	f8a43423          	sd	a0,-120(s0)
  e8:	32b50b63          	beq	a0,a1,41e <.LBB0_42+0x30c>
  ec:	a009                	j	ee <_ZN4core4sync6atomic23atomic_compare_exchange17h761508490902fbf6E+0xee>
  ee:	4509                	li	a0,2
  f0:	f8843583          	ld	a1,-120(s0)
  f4:	38a58b63          	beq	a1,a0,48a <.LBB0_42+0x378>
  f8:	a009                	j	fa <_ZN4core4sync6atomic23atomic_compare_exchange17h761508490902fbf6E+0xfa>
  fa:	4511                	li	a0,4
  fc:	f8843583          	ld	a1,-120(s0)
 100:	1ca58d63          	beq	a1,a0,2da <.LBB0_42+0x1c8>
 104:	bfad                	j	7e <_ZN4core4sync6atomic23atomic_compare_exchange17h761508490902fbf6E+0x7e>

0000000000000106 <.LBB0_41>:
 106:	00000517          	auipc	a0,0x0
 10a:	00050513          	mv	a0,a0
 10e:	03c00593          	li	a1,60

0000000000000112 <.LBB0_42>:
 112:	00000617          	auipc	a2,0x0
 116:	00060613          	mv	a2,a2
 11a:	00000097          	auipc	ra,0x0
 11e:	000080e7          	jalr	ra # 11a <.LBB0_42+0x8>
 122:	00000097          	auipc	ra,0x0
 126:	000080e7          	jalr	ra # 122 <.LBB0_42+0x10>
 12a:	fc043503          	ld	a0,-64(s0)
 12e:	00351593          	slli	a1,a0,0x3
 132:	89e1                	andi	a1,a1,24
 134:	0ff00613          	li	a2,255
 138:	00b6163b          	sllw	a2,a2,a1
 13c:	fb843683          	ld	a3,-72(s0)
 140:	0ff6f713          	andi	a4,a3,255
 144:	00b7173b          	sllw	a4,a4,a1
 148:	fb043783          	ld	a5,-80(s0)
 14c:	0ff7f813          	andi	a6,a5,255
 150:	00b8183b          	sllw	a6,a6,a1
 154:	ffc57893          	andi	a7,a0,-4
 158:	1408a2af          	lr.w.aq	t0,(a7)
 15c:	00c2f333          	and	t1,t0,a2
 160:	01031c63          	bne	t1,a6,178 <.LBB0_42+0x66>
 164:	00e2c333          	xor	t1,t0,a4
 168:	00c37333          	and	t1,t1,a2
 16c:	0062c333          	xor	t1,t0,t1
 170:	1868a32f          	sc.w	t1,t1,(a7)
 174:	fe0312e3          	bnez	t1,158 <.LBB0_42+0x46>
 178:	00b2d5bb          	srlw	a1,t0,a1
 17c:	fcb40823          	sb	a1,-48(s0)
 180:	00c2f5b3          	and	a1,t0,a2
 184:	2581                	sext.w	a1,a1
 186:	00b845b3          	xor	a1,a6,a1
 18a:	0015b593          	seqz	a1,a1
 18e:	fcb408a3          	sb	a1,-47(s0)
 192:	a009                	j	194 <.LBB0_42+0x82>
 194:	a66d                	j	53e <.LBB0_73+0x18>
 196:	fc043503          	ld	a0,-64(s0)
 19a:	00351593          	slli	a1,a0,0x3
 19e:	89e1                	andi	a1,a1,24
 1a0:	0ff00613          	li	a2,255
 1a4:	00b6163b          	sllw	a2,a2,a1
 1a8:	fb843683          	ld	a3,-72(s0)
 1ac:	0ff6f713          	andi	a4,a3,255
 1b0:	00b7173b          	sllw	a4,a4,a1
 1b4:	fb043783          	ld	a5,-80(s0)
 1b8:	0ff7f813          	andi	a6,a5,255
 1bc:	00b8183b          	sllw	a6,a6,a1
 1c0:	ffc57893          	andi	a7,a0,-4
 1c4:	1008a2af          	lr.w	t0,(a7)
 1c8:	00c2f333          	and	t1,t0,a2
 1cc:	01031c63          	bne	t1,a6,1e4 <.LBB0_42+0xd2>
 1d0:	00e2c333          	xor	t1,t0,a4
 1d4:	00c37333          	and	t1,t1,a2
 1d8:	0062c333          	xor	t1,t0,t1
 1dc:	1a68a32f          	sc.w.rl	t1,t1,(a7)
 1e0:	fe0312e3          	bnez	t1,1c4 <.LBB0_42+0xb2>
 1e4:	00b2d5bb          	srlw	a1,t0,a1
 1e8:	fcb40823          	sb	a1,-48(s0)
 1ec:	00c2f5b3          	and	a1,t0,a2
 1f0:	2581                	sext.w	a1,a1
 1f2:	00b845b3          	xor	a1,a6,a1
 1f6:	0015b593          	seqz	a1,a1
 1fa:	fcb408a3          	sb	a1,-47(s0)
 1fe:	a009                	j	200 <.LBB0_42+0xee>
 200:	ae3d                	j	53e <.LBB0_73+0x18>
 202:	fc043503          	ld	a0,-64(s0)
 206:	00351593          	slli	a1,a0,0x3
 20a:	89e1                	andi	a1,a1,24
 20c:	0ff00613          	li	a2,255
 210:	00b6163b          	sllw	a2,a2,a1
 214:	fb843683          	ld	a3,-72(s0)
 218:	0ff6f713          	andi	a4,a3,255
 21c:	00b7173b          	sllw	a4,a4,a1
 220:	fb043783          	ld	a5,-80(s0)
 224:	0ff7f813          	andi	a6,a5,255
 228:	00b8183b          	sllw	a6,a6,a1
 22c:	ffc57893          	andi	a7,a0,-4
 230:	1408a2af          	lr.w.aq	t0,(a7)
 234:	00c2f333          	and	t1,t0,a2
 238:	01031c63          	bne	t1,a6,250 <.LBB0_42+0x13e>
 23c:	00e2c333          	xor	t1,t0,a4
 240:	00c37333          	and	t1,t1,a2
 244:	0062c333          	xor	t1,t0,t1
 248:	1a68a32f          	sc.w.rl	t1,t1,(a7)
 24c:	fe0312e3          	bnez	t1,230 <.LBB0_42+0x11e>
 250:	00b2d5bb          	srlw	a1,t0,a1
 254:	fcb40823          	sb	a1,-48(s0)
 258:	00c2f5b3          	and	a1,t0,a2
 25c:	2581                	sext.w	a1,a1
 25e:	00b845b3          	xor	a1,a6,a1
 262:	0015b593          	seqz	a1,a1
 266:	fcb408a3          	sb	a1,-47(s0)
 26a:	a009                	j	26c <.LBB0_42+0x15a>
 26c:	acc9                	j	53e <.LBB0_73+0x18>
 26e:	fc043503          	ld	a0,-64(s0)
 272:	00351593          	slli	a1,a0,0x3
 276:	89e1                	andi	a1,a1,24
 278:	0ff00613          	li	a2,255
 27c:	00b6163b          	sllw	a2,a2,a1
 280:	fb843683          	ld	a3,-72(s0)
 284:	0ff6f713          	andi	a4,a3,255
 288:	00b7173b          	sllw	a4,a4,a1
 28c:	fb043783          	ld	a5,-80(s0)
 290:	0ff7f813          	andi	a6,a5,255
 294:	00b8183b          	sllw	a6,a6,a1
 298:	ffc57893          	andi	a7,a0,-4
 29c:	1008a2af          	lr.w	t0,(a7)
 2a0:	00c2f333          	and	t1,t0,a2
 2a4:	01031c63          	bne	t1,a6,2bc <.LBB0_42+0x1aa>
 2a8:	00e2c333          	xor	t1,t0,a4
 2ac:	00c37333          	and	t1,t1,a2
 2b0:	0062c333          	xor	t1,t0,t1
 2b4:	1868a32f          	sc.w	t1,t1,(a7)
 2b8:	fe0312e3          	bnez	t1,29c <.LBB0_42+0x18a>
 2bc:	00b2d5bb          	srlw	a1,t0,a1
 2c0:	fcb40823          	sb	a1,-48(s0)
 2c4:	00c2f5b3          	and	a1,t0,a2
 2c8:	2581                	sext.w	a1,a1
 2ca:	00b845b3          	xor	a1,a6,a1
 2ce:	0015b593          	seqz	a1,a1
 2d2:	fcb408a3          	sb	a1,-47(s0)
 2d6:	a009                	j	2d8 <.LBB0_42+0x1c6>
 2d8:	a49d                	j	53e <.LBB0_73+0x18>
 2da:	fc043503          	ld	a0,-64(s0)
 2de:	00351593          	slli	a1,a0,0x3
 2e2:	89e1                	andi	a1,a1,24
 2e4:	0ff00613          	li	a2,255
 2e8:	00b6163b          	sllw	a2,a2,a1
 2ec:	fb843683          	ld	a3,-72(s0)
 2f0:	0ff6f713          	andi	a4,a3,255
 2f4:	00b7173b          	sllw	a4,a4,a1
 2f8:	fb043783          	ld	a5,-80(s0)
 2fc:	0ff7f813          	andi	a6,a5,255
 300:	00b8183b          	sllw	a6,a6,a1
 304:	ffc57893          	andi	a7,a0,-4
 308:	1608a2af          	lr.w.aqrl	t0,(a7)
 30c:	00c2f333          	and	t1,t0,a2
 310:	01031c63          	bne	t1,a6,328 <.LBB0_42+0x216>
 314:	00e2c333          	xor	t1,t0,a4
 318:	00c37333          	and	t1,t1,a2
 31c:	0062c333          	xor	t1,t0,t1
 320:	1e68a32f          	sc.w.aqrl	t1,t1,(a7)
 324:	fe0312e3          	bnez	t1,308 <.LBB0_42+0x1f6>
 328:	00b2d5bb          	srlw	a1,t0,a1
 32c:	fcb40823          	sb	a1,-48(s0)
 330:	00c2f5b3          	and	a1,t0,a2
 334:	2581                	sext.w	a1,a1
 336:	00b845b3          	xor	a1,a6,a1
 33a:	0015b593          	seqz	a1,a1
 33e:	fcb408a3          	sb	a1,-47(s0)
 342:	a009                	j	344 <.LBB0_42+0x232>
 344:	aaed                	j	53e <.LBB0_73+0x18>
 346:	fc043503          	ld	a0,-64(s0)
 34a:	00351593          	slli	a1,a0,0x3
 34e:	89e1                	andi	a1,a1,24
 350:	0ff00613          	li	a2,255
 354:	00b6163b          	sllw	a2,a2,a1
 358:	fb843683          	ld	a3,-72(s0)
 35c:	0ff6f713          	andi	a4,a3,255
 360:	00b7173b          	sllw	a4,a4,a1
 364:	fb043783          	ld	a5,-80(s0)
 368:	0ff7f813          	andi	a6,a5,255
 36c:	00b8183b          	sllw	a6,a6,a1
 370:	ffc57893          	andi	a7,a0,-4
 374:	1408a2af          	lr.w.aq	t0,(a7)
 378:	00c2f333          	and	t1,t0,a2
 37c:	01031c63          	bne	t1,a6,394 <.LBB0_42+0x282>
 380:	00e2c333          	xor	t1,t0,a4
 384:	00c37333          	and	t1,t1,a2
 388:	0062c333          	xor	t1,t0,t1
 38c:	1868a32f          	sc.w	t1,t1,(a7)
 390:	fe0312e3          	bnez	t1,374 <.LBB0_42+0x262>
 394:	00b2d5bb          	srlw	a1,t0,a1
 398:	fcb40823          	sb	a1,-48(s0)
 39c:	00c2f5b3          	and	a1,t0,a2
 3a0:	2581                	sext.w	a1,a1
 3a2:	00b845b3          	xor	a1,a6,a1
 3a6:	0015b593          	seqz	a1,a1
 3aa:	fcb408a3          	sb	a1,-47(s0)
 3ae:	a009                	j	3b0 <.LBB0_42+0x29e>
 3b0:	a279                	j	53e <.LBB0_73+0x18>
 3b2:	fc043503          	ld	a0,-64(s0)
 3b6:	00351593          	slli	a1,a0,0x3
 3ba:	89e1                	andi	a1,a1,24
 3bc:	0ff00613          	li	a2,255
 3c0:	00b6163b          	sllw	a2,a2,a1
 3c4:	fb843683          	ld	a3,-72(s0)
 3c8:	0ff6f713          	andi	a4,a3,255
 3cc:	00b7173b          	sllw	a4,a4,a1
 3d0:	fb043783          	ld	a5,-80(s0)
 3d4:	0ff7f813          	andi	a6,a5,255
 3d8:	00b8183b          	sllw	a6,a6,a1
 3dc:	ffc57893          	andi	a7,a0,-4
 3e0:	1408a2af          	lr.w.aq	t0,(a7)
 3e4:	00c2f333          	and	t1,t0,a2
 3e8:	01031c63          	bne	t1,a6,400 <.LBB0_42+0x2ee>
 3ec:	00e2c333          	xor	t1,t0,a4
 3f0:	00c37333          	and	t1,t1,a2
 3f4:	0062c333          	xor	t1,t0,t1
 3f8:	1a68a32f          	sc.w.rl	t1,t1,(a7)
 3fc:	fe0312e3          	bnez	t1,3e0 <.LBB0_42+0x2ce>
 400:	00b2d5bb          	srlw	a1,t0,a1
 404:	fcb40823          	sb	a1,-48(s0)
 408:	00c2f5b3          	and	a1,t0,a2
 40c:	2581                	sext.w	a1,a1
 40e:	00b845b3          	xor	a1,a6,a1
 412:	0015b593          	seqz	a1,a1
 416:	fcb408a3          	sb	a1,-47(s0)
 41a:	a009                	j	41c <.LBB0_42+0x30a>
 41c:	a20d                	j	53e <.LBB0_73+0x18>
 41e:	fc043503          	ld	a0,-64(s0)
 422:	00351593          	slli	a1,a0,0x3
 426:	89e1                	andi	a1,a1,24
 428:	0ff00613          	li	a2,255
 42c:	00b6163b          	sllw	a2,a2,a1
 430:	fb843683          	ld	a3,-72(s0)
 434:	0ff6f713          	andi	a4,a3,255
 438:	00b7173b          	sllw	a4,a4,a1
 43c:	fb043783          	ld	a5,-80(s0)
 440:	0ff7f813          	andi	a6,a5,255
 444:	00b8183b          	sllw	a6,a6,a1
 448:	ffc57893          	andi	a7,a0,-4
 44c:	1608a2af          	lr.w.aqrl	t0,(a7)
 450:	00c2f333          	and	t1,t0,a2
 454:	01031c63          	bne	t1,a6,46c <.LBB0_42+0x35a>
 458:	00e2c333          	xor	t1,t0,a4
 45c:	00c37333          	and	t1,t1,a2
 460:	0062c333          	xor	t1,t0,t1
 464:	1e68a32f          	sc.w.aqrl	t1,t1,(a7)
 468:	fe0312e3          	bnez	t1,44c <.LBB0_42+0x33a>
 46c:	00b2d5bb          	srlw	a1,t0,a1
 470:	fcb40823          	sb	a1,-48(s0)
 474:	00c2f5b3          	and	a1,t0,a2
 478:	2581                	sext.w	a1,a1
 47a:	00b845b3          	xor	a1,a6,a1
 47e:	0015b593          	seqz	a1,a1
 482:	fcb408a3          	sb	a1,-47(s0)
 486:	a009                	j	488 <.LBB0_42+0x376>
 488:	a85d                	j	53e <.LBB0_73+0x18>
 48a:	fc043503          	ld	a0,-64(s0)
 48e:	00351593          	slli	a1,a0,0x3
 492:	89e1                	andi	a1,a1,24
 494:	0ff00613          	li	a2,255
 498:	00b6163b          	sllw	a2,a2,a1
 49c:	fb843683          	ld	a3,-72(s0)
 4a0:	0ff6f713          	andi	a4,a3,255
 4a4:	00b7173b          	sllw	a4,a4,a1
 4a8:	fb043783          	ld	a5,-80(s0)
 4ac:	0ff7f813          	andi	a6,a5,255
 4b0:	00b8183b          	sllw	a6,a6,a1
 4b4:	ffc57893          	andi	a7,a0,-4
 4b8:	1608a2af          	lr.w.aqrl	t0,(a7)
 4bc:	00c2f333          	and	t1,t0,a2
 4c0:	01031c63          	bne	t1,a6,4d8 <.LBB0_42+0x3c6>
 4c4:	00e2c333          	xor	t1,t0,a4
 4c8:	00c37333          	and	t1,t1,a2
 4cc:	0062c333          	xor	t1,t0,t1
 4d0:	1e68a32f          	sc.w.aqrl	t1,t1,(a7)
 4d4:	fe0312e3          	bnez	t1,4b8 <.LBB0_42+0x3a6>
 4d8:	00b2d5bb          	srlw	a1,t0,a1
 4dc:	fcb40823          	sb	a1,-48(s0)
 4e0:	00c2f5b3          	and	a1,t0,a2
 4e4:	2581                	sext.w	a1,a1
 4e6:	00b845b3          	xor	a1,a6,a1
 4ea:	0015b593          	seqz	a1,a1
 4ee:	fcb408a3          	sb	a1,-47(s0)
 4f2:	a009                	j	4f4 <.LBB0_42+0x3e2>
 4f4:	a0a9                	j	53e <.LBB0_73+0x18>

00000000000004f6 <.LBB0_70>:
 4f6:	00000517          	auipc	a0,0x0
 4fa:	00050513          	mv	a0,a0
 4fe:	03d00593          	li	a1,61

0000000000000502 <.LBB0_71>:
 502:	00000617          	auipc	a2,0x0
 506:	00060613          	mv	a2,a2
 50a:	00000097          	auipc	ra,0x0
 50e:	000080e7          	jalr	ra # 50a <.LBB0_71+0x8>
 512:	00000097          	auipc	ra,0x0
 516:	000080e7          	jalr	ra # 512 <.LBB0_71+0x10>

000000000000051a <.LBB0_72>:
 51a:	00000517          	auipc	a0,0x0
 51e:	00050513          	mv	a0,a0
 522:	03400593          	li	a1,52

0000000000000526 <.LBB0_73>:
 526:	00000617          	auipc	a2,0x0
 52a:	00060613          	mv	a2,a2
 52e:	00000097          	auipc	ra,0x0
 532:	000080e7          	jalr	ra # 52e <.LBB0_73+0x8>
 536:	00000097          	auipc	ra,0x0
 53a:	000080e7          	jalr	ra # 536 <.LBB0_73+0x10>
 53e:	fd044503          	lbu	a0,-48(s0)
 542:	fea40723          	sb	a0,-18(s0)
 546:	fd144583          	lbu	a1,-47(s0)
 54a:	feb407a3          	sb	a1,-17(s0)
 54e:	8985                	andi	a1,a1,1
 550:	f8a43023          	sd	a0,-128(s0)
 554:	e991                	bnez	a1,568 <.LBB0_73+0x42>
 556:	a009                	j	558 <.LBB0_73+0x32>
 558:	4505                	li	a0,1
 55a:	fca40423          	sb	a0,-56(s0)
 55e:	f8043503          	ld	a0,-128(s0)
 562:	fca404a3          	sb	a0,-55(s0)
 566:	a809                	j	578 <.LBB0_73+0x52>
 568:	4501                	li	a0,0
 56a:	fca40423          	sb	a0,-56(s0)
 56e:	f8043503          	ld	a0,-128(s0)
 572:	fca404a3          	sb	a0,-55(s0)
 576:	a009                	j	578 <.LBB0_73+0x52>
 578:	fc844503          	lbu	a0,-56(s0)
 57c:	fc940583          	lb	a1,-55(s0)
 580:	7446                	ld	s0,112(sp)
 582:	70e6                	ld	ra,120(sp)
 584:	6109                	addi	sp,sp,128
 586:	8082                	ret

compiler_builtins-fe5d7b548202ece1.compiler_builtins.5z26s2vv-cgu.0.rcgu.o:     file format elf64-littleriscv


Disassembly of section .text.__floatsisf:

0000000000000000 <__floatsisf>:
   0:	1141                	addi	sp,sp,-16
   2:	e406                	sd	ra,8(sp)
   4:	e022                	sd	s0,0(sp)
   6:	0800                	addi	s0,sp,16
   8:	c57d                	beqz	a0,f6 <.LBB0_15>
   a:	43f55593          	srai	a1,a0,0x3f
   e:	00b50633          	add	a2,a0,a1
  12:	8db1                	xor	a1,a1,a2
  14:	02000613          	li	a2,32
  18:	02059693          	slli	a3,a1,0x20
  1c:	9281                	srli	a3,a3,0x20
  1e:	02000713          	li	a4,32
  22:	cac5                	beqz	a3,d2 <__floatsisf+0xd2>
  24:	0015d71b          	srliw	a4,a1,0x1
  28:	8ed9                	or	a3,a3,a4
  2a:	0026d713          	srli	a4,a3,0x2
  2e:	8ed9                	or	a3,a3,a4
  30:	0046d713          	srli	a4,a3,0x4
  34:	8ed9                	or	a3,a3,a4
  36:	0086d713          	srli	a4,a3,0x8
  3a:	8ed9                	or	a3,a3,a4
  3c:	0106d713          	srli	a4,a3,0x10
  40:	8ed9                	or	a3,a3,a4
  42:	0206d713          	srli	a4,a3,0x20
  46:	8ed9                	or	a3,a3,a4
  48:	05555737          	lui	a4,0x5555
  4c:	5557071b          	addiw	a4,a4,1365
  50:	0732                	slli	a4,a4,0xc
  52:	55570713          	addi	a4,a4,1365 # 5555555 <.LBB0_15+0x555545f>
  56:	0732                	slli	a4,a4,0xc
  58:	55570713          	addi	a4,a4,1365
  5c:	0732                	slli	a4,a4,0xc
  5e:	55570713          	addi	a4,a4,1365
  62:	fff6c693          	not	a3,a3
  66:	0016d793          	srli	a5,a3,0x1
  6a:	8f7d                	and	a4,a4,a5
  6c:	8e99                	sub	a3,a3,a4
  6e:	03333737          	lui	a4,0x3333
  72:	3337071b          	addiw	a4,a4,819
  76:	0732                	slli	a4,a4,0xc
  78:	33370713          	addi	a4,a4,819 # 3333333 <.LBB0_15+0x333323d>
  7c:	0732                	slli	a4,a4,0xc
  7e:	33370713          	addi	a4,a4,819
  82:	0732                	slli	a4,a4,0xc
  84:	33370713          	addi	a4,a4,819
  88:	00e6f7b3          	and	a5,a3,a4
  8c:	8289                	srli	a3,a3,0x2
  8e:	8ef9                	and	a3,a3,a4
  90:	96be                	add	a3,a3,a5
  92:	0046d713          	srli	a4,a3,0x4
  96:	96ba                	add	a3,a3,a4
  98:	00f0f737          	lui	a4,0xf0f
  9c:	0f17071b          	addiw	a4,a4,241
  a0:	0732                	slli	a4,a4,0xc
  a2:	f0f70713          	addi	a4,a4,-241 # f0ef0f <.LBB0_15+0xf0ee19>
  a6:	0732                	slli	a4,a4,0xc
  a8:	0f170713          	addi	a4,a4,241
  ac:	0732                	slli	a4,a4,0xc
  ae:	f0f70713          	addi	a4,a4,-241
  b2:	8ef9                	and	a3,a3,a4
  b4:	01010737          	lui	a4,0x1010
  b8:	1017071b          	addiw	a4,a4,257
  bc:	0742                	slli	a4,a4,0x10
  be:	10170713          	addi	a4,a4,257 # 1010101 <.LBB0_15+0x101000b>
  c2:	0742                	slli	a4,a4,0x10
  c4:	10170713          	addi	a4,a4,257
  c8:	02e686b3          	mul	a3,a3,a4
  cc:	92e1                	srli	a3,a3,0x38
  ce:	fe068713          	addi	a4,a3,-32
  d2:	46fd                	li	a3,31
  d4:	8e99                	sub	a3,a3,a4
  d6:	0185d79b          	srliw	a5,a1,0x18
  da:	c78d                	beqz	a5,104 <.LBB0_15+0xe>
  dc:	40e60833          	sub	a6,a2,a4
  e0:	47e9                	li	a5,26
  e2:	04f80063          	beq	a6,a5,122 <.LBB0_15+0x2c>
  e6:	02081793          	slli	a5,a6,0x20
  ea:	9381                	srli	a5,a5,0x20
  ec:	4665                	li	a2,25
  ee:	02c79063          	bne	a5,a2,10e <.LBB0_15+0x18>
  f2:	0586                	slli	a1,a1,0x1
  f4:	a03d                	j	122 <.LBB0_15+0x2c>

00000000000000f6 <.LBB0_15>:
  f6:	00000517          	auipc	a0,0x0
  fa:	00050513          	mv	a0,a0
  fe:	00052007          	flw	ft0,0(a0) # f6 <.LBB0_15>
 102:	a08d                	j	164 <.LBB0_15+0x6e>
 104:	01870613          	addi	a2,a4,24
 108:	00c595bb          	sllw	a1,a1,a2
 10c:	a80d                	j	13e <.LBB0_15+0x48>
 10e:	4619                	li	a2,6
 110:	8e19                	sub	a2,a2,a4
 112:	00c5d63b          	srlw	a2,a1,a2
 116:	0769                	addi	a4,a4,26
 118:	00e595bb          	sllw	a1,a1,a4
 11c:	00b035b3          	snez	a1,a1
 120:	8dd1                	or	a1,a1,a2
 122:	0025d613          	srli	a2,a1,0x2
 126:	8a05                	andi	a2,a2,1
 128:	8dd1                	or	a1,a1,a2
 12a:	0585                	addi	a1,a1,1
 12c:	04000637          	lui	a2,0x4000
 130:	8e6d                	and	a2,a2,a1
 132:	4709                	li	a4,2
 134:	c219                	beqz	a2,13a <.LBB0_15+0x44>
 136:	470d                	li	a4,3
 138:	86c2                	mv	a3,a6
 13a:	00e5d5bb          	srlw	a1,a1,a4
 13e:	80000637          	lui	a2,0x80000
 142:	8d71                	and	a0,a0,a2
 144:	00800637          	lui	a2,0x800
 148:	367d                	addiw	a2,a2,-1
 14a:	8df1                	and	a1,a1,a2
 14c:	8d4d                	or	a0,a0,a1
 14e:	01769593          	slli	a1,a3,0x17
 152:	3f800637          	lui	a2,0x3f800
 156:	95b2                	add	a1,a1,a2
 158:	7f800637          	lui	a2,0x7f800
 15c:	8df1                	and	a1,a1,a2
 15e:	8d4d                	or	a0,a0,a1
 160:	f0050053          	fmv.w.x	ft0,a0
 164:	e0000553          	fmv.x.w	a0,ft0
 168:	6402                	ld	s0,0(sp)
 16a:	60a2                	ld	ra,8(sp)
 16c:	0141                	addi	sp,sp,16
 16e:	8082                	ret

Disassembly of section .text.__floatsidf:

0000000000000000 <__floatsidf>:
   0:	1141                	addi	sp,sp,-16
   2:	e406                	sd	ra,8(sp)
   4:	e022                	sd	s0,0(sp)
   6:	0800                	addi	s0,sp,16
   8:	c169                	beqz	a0,ca <.LBB1_7>
   a:	43f55593          	srai	a1,a0,0x3f
   e:	00b50633          	add	a2,a0,a1
  12:	8e2d                	xor	a2,a2,a1
  14:	02061593          	slli	a1,a2,0x20
  18:	9181                	srli	a1,a1,0x20
  1a:	cddd                	beqz	a1,d8 <.LBB1_7+0xe>
  1c:	0016561b          	srliw	a2,a2,0x1
  20:	8e4d                	or	a2,a2,a1
  22:	00265693          	srli	a3,a2,0x2
  26:	8e55                	or	a2,a2,a3
  28:	00465693          	srli	a3,a2,0x4
  2c:	8e55                	or	a2,a2,a3
  2e:	00865693          	srli	a3,a2,0x8
  32:	8e55                	or	a2,a2,a3
  34:	01065693          	srli	a3,a2,0x10
  38:	8e55                	or	a2,a2,a3
  3a:	02065693          	srli	a3,a2,0x20
  3e:	8e55                	or	a2,a2,a3
  40:	055556b7          	lui	a3,0x5555
  44:	5556869b          	addiw	a3,a3,1365
  48:	06b2                	slli	a3,a3,0xc
  4a:	55568693          	addi	a3,a3,1365 # 5555555 <.LBB0_15+0x555545f>
  4e:	06b2                	slli	a3,a3,0xc
  50:	55568693          	addi	a3,a3,1365
  54:	06b2                	slli	a3,a3,0xc
  56:	55568693          	addi	a3,a3,1365
  5a:	fff64613          	not	a2,a2
  5e:	00165713          	srli	a4,a2,0x1
  62:	8ef9                	and	a3,a3,a4
  64:	8e15                	sub	a2,a2,a3
  66:	033336b7          	lui	a3,0x3333
  6a:	3336869b          	addiw	a3,a3,819
  6e:	06b2                	slli	a3,a3,0xc
  70:	33368693          	addi	a3,a3,819 # 3333333 <.LBB0_15+0x333323d>
  74:	06b2                	slli	a3,a3,0xc
  76:	33368693          	addi	a3,a3,819
  7a:	06b2                	slli	a3,a3,0xc
  7c:	33368693          	addi	a3,a3,819
  80:	00d67733          	and	a4,a2,a3
  84:	8209                	srli	a2,a2,0x2
  86:	8e75                	and	a2,a2,a3
  88:	963a                	add	a2,a2,a4
  8a:	00465693          	srli	a3,a2,0x4
  8e:	9636                	add	a2,a2,a3
  90:	00f0f6b7          	lui	a3,0xf0f
  94:	0f16869b          	addiw	a3,a3,241
  98:	06b2                	slli	a3,a3,0xc
  9a:	f0f68693          	addi	a3,a3,-241 # f0ef0f <.LBB0_15+0xf0ee19>
  9e:	06b2                	slli	a3,a3,0xc
  a0:	0f168693          	addi	a3,a3,241
  a4:	06b2                	slli	a3,a3,0xc
  a6:	f0f68693          	addi	a3,a3,-241
  aa:	8e75                	and	a2,a2,a3
  ac:	010106b7          	lui	a3,0x1010
  b0:	1016869b          	addiw	a3,a3,257
  b4:	06c2                	slli	a3,a3,0x10
  b6:	10168693          	addi	a3,a3,257 # 1010101 <.LBB0_15+0x101000b>
  ba:	06c2                	slli	a3,a3,0x10
  bc:	10168693          	addi	a3,a3,257
  c0:	02d60633          	mul	a2,a2,a3
  c4:	9261                	srli	a2,a2,0x38
  c6:	1601                	addi	a2,a2,-32
  c8:	a811                	j	dc <.LBB1_7+0x12>

00000000000000ca <.LBB1_7>:
  ca:	00000517          	auipc	a0,0x0
  ce:	00050513          	mv	a0,a0
  d2:	00053007          	fld	ft0,0(a0) # ca <.LBB1_7>
  d6:	a035                	j	102 <.LBB1_7+0x38>
  d8:	02000613          	li	a2,32
  dc:	56fd                	li	a3,-1
  de:	16fe                	slli	a3,a3,0x3f
  e0:	1502                	slli	a0,a0,0x20
  e2:	8d75                	and	a0,a0,a3
  e4:	41e00693          	li	a3,1054
  e8:	8e91                	sub	a3,a3,a2
  ea:	16d2                	slli	a3,a3,0x34
  ec:	8d55                	or	a0,a0,a3
  ee:	0655                	addi	a2,a2,21
  f0:	00c595b3          	sll	a1,a1,a2
  f4:	4605                	li	a2,1
  f6:	1652                	slli	a2,a2,0x34
  f8:	167d                	addi	a2,a2,-1
  fa:	8df1                	and	a1,a1,a2
  fc:	8d4d                	or	a0,a0,a1
  fe:	f2050053          	fmv.d.x	ft0,a0
 102:	e2000553          	fmv.x.d	a0,ft0
 106:	6402                	ld	s0,0(sp)
 108:	60a2                	ld	ra,8(sp)
 10a:	0141                	addi	sp,sp,16
 10c:	8082                	ret

Disassembly of section .text.__floatdisf:

0000000000000000 <__floatdisf>:
   0:	1141                	addi	sp,sp,-16
   2:	e406                	sd	ra,8(sp)
   4:	e022                	sd	s0,0(sp)
   6:	0800                	addi	s0,sp,16
   8:	c565                	beqz	a0,f0 <.LBB2_15>
   a:	43f55593          	srai	a1,a0,0x3f
   e:	00b50633          	add	a2,a0,a1
  12:	8db1                	xor	a1,a1,a2
  14:	04000693          	li	a3,64
  18:	04000713          	li	a4,64
  1c:	c5dd                	beqz	a1,ca <__floatdisf+0xca>
  1e:	0015d613          	srli	a2,a1,0x1
  22:	8e4d                	or	a2,a2,a1
  24:	00265713          	srli	a4,a2,0x2
  28:	8e59                	or	a2,a2,a4
  2a:	00465713          	srli	a4,a2,0x4
  2e:	8e59                	or	a2,a2,a4
  30:	00865713          	srli	a4,a2,0x8
  34:	8e59                	or	a2,a2,a4
  36:	01065713          	srli	a4,a2,0x10
  3a:	8e59                	or	a2,a2,a4
  3c:	02065713          	srli	a4,a2,0x20
  40:	8e59                	or	a2,a2,a4
  42:	05555737          	lui	a4,0x5555
  46:	5557071b          	addiw	a4,a4,1365
  4a:	0732                	slli	a4,a4,0xc
  4c:	55570713          	addi	a4,a4,1365 # 5555555 <.LBB0_15+0x555545f>
  50:	0732                	slli	a4,a4,0xc
  52:	55570713          	addi	a4,a4,1365
  56:	0732                	slli	a4,a4,0xc
  58:	fff64613          	not	a2,a2
  5c:	55570713          	addi	a4,a4,1365
  60:	00165793          	srli	a5,a2,0x1
  64:	8f7d                	and	a4,a4,a5
  66:	8e19                	sub	a2,a2,a4
  68:	03333737          	lui	a4,0x3333
  6c:	3337071b          	addiw	a4,a4,819
  70:	0732                	slli	a4,a4,0xc
  72:	33370713          	addi	a4,a4,819 # 3333333 <.LBB0_15+0x333323d>
  76:	0732                	slli	a4,a4,0xc
  78:	33370713          	addi	a4,a4,819
  7c:	0732                	slli	a4,a4,0xc
  7e:	33370713          	addi	a4,a4,819
  82:	00e677b3          	and	a5,a2,a4
  86:	8209                	srli	a2,a2,0x2
  88:	8e79                	and	a2,a2,a4
  8a:	963e                	add	a2,a2,a5
  8c:	00465713          	srli	a4,a2,0x4
  90:	963a                	add	a2,a2,a4
  92:	00f0f737          	lui	a4,0xf0f
  96:	0f17071b          	addiw	a4,a4,241
  9a:	0732                	slli	a4,a4,0xc
  9c:	f0f70713          	addi	a4,a4,-241 # f0ef0f <.LBB0_15+0xf0ee19>
  a0:	0732                	slli	a4,a4,0xc
  a2:	0f170713          	addi	a4,a4,241
  a6:	0732                	slli	a4,a4,0xc
  a8:	f0f70713          	addi	a4,a4,-241
  ac:	8e79                	and	a2,a2,a4
  ae:	01010737          	lui	a4,0x1010
  b2:	1017071b          	addiw	a4,a4,257
  b6:	0742                	slli	a4,a4,0x10
  b8:	10170713          	addi	a4,a4,257 # 1010101 <.LBB0_15+0x101000b>
  bc:	0742                	slli	a4,a4,0x10
  be:	10170713          	addi	a4,a4,257
  c2:	02e60633          	mul	a2,a2,a4
  c6:	03865713          	srli	a4,a2,0x38
  ca:	03f00613          	li	a2,63
  ce:	40e60833          	sub	a6,a2,a4
  d2:	8e99                	sub	a3,a3,a4
  d4:	47e1                	li	a5,24
  d6:	02d7f463          	bgeu	a5,a3,fe <.LBB2_15+0xe>
  da:	47e9                	li	a5,26
  dc:	04f68163          	beq	a3,a5,11e <.LBB2_15+0x2e>
  e0:	02069793          	slli	a5,a3,0x20
  e4:	9381                	srli	a5,a5,0x20
  e6:	4665                	li	a2,25
  e8:	02c79063          	bne	a5,a2,108 <.LBB2_15+0x18>
  ec:	0586                	slli	a1,a1,0x1
  ee:	a805                	j	11e <.LBB2_15+0x2e>

00000000000000f0 <.LBB2_15>:
  f0:	00000517          	auipc	a0,0x0
  f4:	00050513          	mv	a0,a0
  f8:	00052007          	flw	ft0,0(a0) # f0 <.LBB2_15>
  fc:	a09d                	j	162 <.LBB2_15+0x72>
  fe:	01870693          	addi	a3,a4,24
 102:	00d595b3          	sll	a1,a1,a3
 106:	a815                	j	13a <.LBB2_15+0x4a>
 108:	02600613          	li	a2,38
 10c:	8e19                	sub	a2,a2,a4
 10e:	00c5d633          	srl	a2,a1,a2
 112:	0769                	addi	a4,a4,26
 114:	00e595b3          	sll	a1,a1,a4
 118:	00b035b3          	snez	a1,a1
 11c:	8dd1                	or	a1,a1,a2
 11e:	0025d613          	srli	a2,a1,0x2
 122:	8a05                	andi	a2,a2,1
 124:	8dd1                	or	a1,a1,a2
 126:	0585                	addi	a1,a1,1
 128:	04000637          	lui	a2,0x4000
 12c:	8e6d                	and	a2,a2,a1
 12e:	4709                	li	a4,2
 130:	c219                	beqz	a2,136 <.LBB2_15+0x46>
 132:	470d                	li	a4,3
 134:	8836                	mv	a6,a3
 136:	00e5d5b3          	srl	a1,a1,a4
 13a:	4605                	li	a2,1
 13c:	067e                	slli	a2,a2,0x1f
 13e:	9101                	srli	a0,a0,0x20
 140:	8d71                	and	a0,a0,a2
 142:	00800637          	lui	a2,0x800
 146:	367d                	addiw	a2,a2,-1
 148:	8df1                	and	a1,a1,a2
 14a:	8d4d                	or	a0,a0,a1
 14c:	01781593          	slli	a1,a6,0x17
 150:	3f800637          	lui	a2,0x3f800
 154:	95b2                	add	a1,a1,a2
 156:	7f800637          	lui	a2,0x7f800
 15a:	8df1                	and	a1,a1,a2
 15c:	8d4d                	or	a0,a0,a1
 15e:	f0050053          	fmv.w.x	ft0,a0
 162:	e0000553          	fmv.x.w	a0,ft0
 166:	6402                	ld	s0,0(sp)
 168:	60a2                	ld	ra,8(sp)
 16a:	0141                	addi	sp,sp,16
 16c:	8082                	ret

Disassembly of section .text.__floatdidf:

0000000000000000 <__floatdidf>:
   0:	1141                	addi	sp,sp,-16
   2:	e406                	sd	ra,8(sp)
   4:	e022                	sd	s0,0(sp)
   6:	0800                	addi	s0,sp,16
   8:	c57d                	beqz	a0,f6 <.LBB3_15>
   a:	43f55593          	srai	a1,a0,0x3f
   e:	00b50633          	add	a2,a0,a1
  12:	8db1                	xor	a1,a1,a2
  14:	04000693          	li	a3,64
  18:	04000713          	li	a4,64
  1c:	c5dd                	beqz	a1,ca <__floatdidf+0xca>
  1e:	0015d613          	srli	a2,a1,0x1
  22:	8e4d                	or	a2,a2,a1
  24:	00265713          	srli	a4,a2,0x2
  28:	8e59                	or	a2,a2,a4
  2a:	00465713          	srli	a4,a2,0x4
  2e:	8e59                	or	a2,a2,a4
  30:	00865713          	srli	a4,a2,0x8
  34:	8e59                	or	a2,a2,a4
  36:	01065713          	srli	a4,a2,0x10
  3a:	8e59                	or	a2,a2,a4
  3c:	02065713          	srli	a4,a2,0x20
  40:	8e59                	or	a2,a2,a4
  42:	05555737          	lui	a4,0x5555
  46:	5557071b          	addiw	a4,a4,1365
  4a:	0732                	slli	a4,a4,0xc
  4c:	55570713          	addi	a4,a4,1365 # 5555555 <.LBB3_15+0x555545f>
  50:	0732                	slli	a4,a4,0xc
  52:	55570713          	addi	a4,a4,1365
  56:	0732                	slli	a4,a4,0xc
  58:	fff64613          	not	a2,a2
  5c:	55570713          	addi	a4,a4,1365
  60:	00165793          	srli	a5,a2,0x1
  64:	8f7d                	and	a4,a4,a5
  66:	8e19                	sub	a2,a2,a4
  68:	03333737          	lui	a4,0x3333
  6c:	3337071b          	addiw	a4,a4,819
  70:	0732                	slli	a4,a4,0xc
  72:	33370713          	addi	a4,a4,819 # 3333333 <.LBB3_15+0x333323d>
  76:	0732                	slli	a4,a4,0xc
  78:	33370713          	addi	a4,a4,819
  7c:	0732                	slli	a4,a4,0xc
  7e:	33370713          	addi	a4,a4,819
  82:	00e677b3          	and	a5,a2,a4
  86:	8209                	srli	a2,a2,0x2
  88:	8e79                	and	a2,a2,a4
  8a:	963e                	add	a2,a2,a5
  8c:	00465713          	srli	a4,a2,0x4
  90:	963a                	add	a2,a2,a4
  92:	00f0f737          	lui	a4,0xf0f
  96:	0f17071b          	addiw	a4,a4,241
  9a:	0732                	slli	a4,a4,0xc
  9c:	f0f70713          	addi	a4,a4,-241 # f0ef0f <.LBB3_15+0xf0ee19>
  a0:	0732                	slli	a4,a4,0xc
  a2:	0f170713          	addi	a4,a4,241
  a6:	0732                	slli	a4,a4,0xc
  a8:	f0f70713          	addi	a4,a4,-241
  ac:	8e79                	and	a2,a2,a4
  ae:	01010737          	lui	a4,0x1010
  b2:	1017071b          	addiw	a4,a4,257
  b6:	0742                	slli	a4,a4,0x10
  b8:	10170713          	addi	a4,a4,257 # 1010101 <.LBB3_15+0x101000b>
  bc:	0742                	slli	a4,a4,0x10
  be:	10170713          	addi	a4,a4,257
  c2:	02e60633          	mul	a2,a2,a4
  c6:	03865713          	srli	a4,a2,0x38
  ca:	03f00613          	li	a2,63
  ce:	40e60833          	sub	a6,a2,a4
  d2:	8e99                	sub	a3,a3,a4
  d4:	03500793          	li	a5,53
  d8:	02d7f663          	bgeu	a5,a3,104 <.LBB3_15+0xe>
  dc:	03700793          	li	a5,55
  e0:	04f68263          	beq	a3,a5,124 <.LBB3_15+0x2e>
  e4:	02069793          	slli	a5,a3,0x20
  e8:	9381                	srli	a5,a5,0x20
  ea:	03600613          	li	a2,54
  ee:	02c79063          	bne	a5,a2,10e <.LBB3_15+0x18>
  f2:	0586                	slli	a1,a1,0x1
  f4:	a805                	j	124 <.LBB3_15+0x2e>

00000000000000f6 <.LBB3_15>:
  f6:	00000517          	auipc	a0,0x0
  fa:	00050513          	mv	a0,a0
  fe:	00053007          	fld	ft0,0(a0) # f6 <.LBB3_15>
 102:	a08d                	j	164 <.LBB3_15+0x6e>
 104:	03570693          	addi	a3,a4,53
 108:	00d595b3          	sll	a1,a1,a3
 10c:	a815                	j	140 <.LBB3_15+0x4a>
 10e:	4625                	li	a2,9
 110:	8e19                	sub	a2,a2,a4
 112:	00c5d633          	srl	a2,a1,a2
 116:	03770713          	addi	a4,a4,55
 11a:	00e595b3          	sll	a1,a1,a4
 11e:	00b035b3          	snez	a1,a1
 122:	8dd1                	or	a1,a1,a2
 124:	0025d613          	srli	a2,a1,0x2
 128:	8a05                	andi	a2,a2,1
 12a:	8dd1                	or	a1,a1,a2
 12c:	0585                	addi	a1,a1,1
 12e:	4605                	li	a2,1
 130:	165e                	slli	a2,a2,0x37
 132:	8e6d                	and	a2,a2,a1
 134:	4709                	li	a4,2
 136:	c219                	beqz	a2,13c <.LBB3_15+0x46>
 138:	470d                	li	a4,3
 13a:	8836                	mv	a6,a3
 13c:	00e5d5b3          	srl	a1,a1,a4
 140:	567d                	li	a2,-1
 142:	167e                	slli	a2,a2,0x3f
 144:	8d71                	and	a0,a0,a2
 146:	4605                	li	a2,1
 148:	1652                	slli	a2,a2,0x34
 14a:	167d                	addi	a2,a2,-1
 14c:	8df1                	and	a1,a1,a2
 14e:	8d4d                	or	a0,a0,a1
 150:	7ff00593          	li	a1,2047
 154:	15d2                	slli	a1,a1,0x34
 156:	3ff80613          	addi	a2,a6,1023
 15a:	1652                	slli	a2,a2,0x34
 15c:	8df1                	and	a1,a1,a2
 15e:	8d4d                	or	a0,a0,a1
 160:	f2050053          	fmv.d.x	ft0,a0
 164:	e2000553          	fmv.x.d	a0,ft0
 168:	6402                	ld	s0,0(sp)
 16a:	60a2                	ld	ra,8(sp)
 16c:	0141                	addi	sp,sp,16
 16e:	8082                	ret

Disassembly of section .text.__floattisf:

0000000000000000 <__floattisf>:
   0:	1141                	addi	sp,sp,-16
   2:	e406                	sd	ra,8(sp)
   4:	e022                	sd	s0,0(sp)
   6:	0800                	addi	s0,sp,16
   8:	00b56633          	or	a2,a0,a1
   c:	ce01                	beqz	a2,24 <.LBB4_29>
   e:	0205c263          	bltz	a1,32 <.LBB4_29+0xe>
  12:	8f2a                	mv	t5,a0
  14:	0205d363          	bgez	a1,3a <.LBB4_29+0x16>
  18:	00a03533          	snez	a0,a0
  1c:	952e                	add	a0,a0,a1
  1e:	40a008b3          	neg	a7,a0
  22:	a829                	j	3c <.LBB4_29+0x18>

0000000000000024 <.LBB4_29>:
  24:	00000517          	auipc	a0,0x0
  28:	00050513          	mv	a0,a0
  2c:	00052007          	flw	ft0,0(a0) # 24 <.LBB4_29>
  30:	ac1d                	j	266 <.LBB4_29+0x242>
  32:	40a00f33          	neg	t5,a0
  36:	fe05c1e3          	bltz	a1,18 <__floattisf+0x18>
  3a:	88ae                	mv	a7,a1
  3c:	001f5813          	srli	a6,t5,0x1
  40:	05555537          	lui	a0,0x5555
  44:	5555051b          	addiw	a0,a0,1365
  48:	0532                	slli	a0,a0,0xc
  4a:	55550513          	addi	a0,a0,1365 # 5555555 <.LBB0_15+0x555545f>
  4e:	0532                	slli	a0,a0,0xc
  50:	55550513          	addi	a0,a0,1365
  54:	0532                	slli	a0,a0,0xc
  56:	55550293          	addi	t0,a0,1365
  5a:	03333537          	lui	a0,0x3333
  5e:	3335051b          	addiw	a0,a0,819
  62:	0532                	slli	a0,a0,0xc
  64:	33350513          	addi	a0,a0,819 # 3333333 <.LBB0_15+0x333323d>
  68:	0532                	slli	a0,a0,0xc
  6a:	33350513          	addi	a0,a0,819
  6e:	0532                	slli	a0,a0,0xc
  70:	33350713          	addi	a4,a0,819
  74:	00f0f537          	lui	a0,0xf0f
  78:	0f15051b          	addiw	a0,a0,241
  7c:	0532                	slli	a0,a0,0xc
  7e:	f0f50513          	addi	a0,a0,-241 # f0ef0f <.LBB0_15+0xf0ee19>
  82:	0532                	slli	a0,a0,0xc
  84:	0f150513          	addi	a0,a0,241
  88:	0532                	slli	a0,a0,0xc
  8a:	f0f50793          	addi	a5,a0,-241
  8e:	01010537          	lui	a0,0x1010
  92:	1015051b          	addiw	a0,a0,257
  96:	0542                	slli	a0,a0,0x10
  98:	10150513          	addi	a0,a0,257 # 1010101 <.LBB0_15+0x101000b>
  9c:	0542                	slli	a0,a0,0x10
  9e:	10150513          	addi	a0,a0,257
  a2:	04089963          	bnez	a7,f4 <.LBB4_29+0xd0>
  a6:	010f6633          	or	a2,t5,a6
  aa:	00265693          	srli	a3,a2,0x2
  ae:	8e55                	or	a2,a2,a3
  b0:	00465693          	srli	a3,a2,0x4
  b4:	8e55                	or	a2,a2,a3
  b6:	00865693          	srli	a3,a2,0x8
  ba:	8e55                	or	a2,a2,a3
  bc:	01065693          	srli	a3,a2,0x10
  c0:	8e55                	or	a2,a2,a3
  c2:	02065693          	srli	a3,a2,0x20
  c6:	8e55                	or	a2,a2,a3
  c8:	fff64613          	not	a2,a2
  cc:	00165693          	srli	a3,a2,0x1
  d0:	0056f6b3          	and	a3,a3,t0
  d4:	8e15                	sub	a2,a2,a3
  d6:	00e676b3          	and	a3,a2,a4
  da:	8209                	srli	a2,a2,0x2
  dc:	8e79                	and	a2,a2,a4
  de:	9636                	add	a2,a2,a3
  e0:	00465693          	srli	a3,a2,0x4
  e4:	9636                	add	a2,a2,a3
  e6:	8e7d                	and	a2,a2,a5
  e8:	02a60533          	mul	a0,a2,a0
  ec:	9161                	srli	a0,a0,0x38
  ee:	04050513          	addi	a0,a0,64
  f2:	a0b9                	j	140 <.LBB4_29+0x11c>
  f4:	0018d613          	srli	a2,a7,0x1
  f8:	00c8e633          	or	a2,a7,a2
  fc:	00265693          	srli	a3,a2,0x2
 100:	8e55                	or	a2,a2,a3
 102:	00465693          	srli	a3,a2,0x4
 106:	8e55                	or	a2,a2,a3
 108:	00865693          	srli	a3,a2,0x8
 10c:	8e55                	or	a2,a2,a3
 10e:	01065693          	srli	a3,a2,0x10
 112:	8e55                	or	a2,a2,a3
 114:	02065693          	srli	a3,a2,0x20
 118:	8e55                	or	a2,a2,a3
 11a:	fff64613          	not	a2,a2
 11e:	00165693          	srli	a3,a2,0x1
 122:	0056f6b3          	and	a3,a3,t0
 126:	8e15                	sub	a2,a2,a3
 128:	00e676b3          	and	a3,a2,a4
 12c:	8209                	srli	a2,a2,0x2
 12e:	8e79                	and	a2,a2,a4
 130:	9636                	add	a2,a2,a3
 132:	00465693          	srli	a3,a2,0x4
 136:	9636                	add	a2,a2,a3
 138:	8e7d                	and	a2,a2,a5
 13a:	02a60533          	mul	a0,a2,a0
 13e:	9161                	srli	a0,a0,0x38
 140:	07f00613          	li	a2,127
 144:	40a60fb3          	sub	t6,a2,a0
 148:	08000613          	li	a2,128
 14c:	40a607b3          	sub	a5,a2,a0
 150:	4661                	li	a2,24
 152:	02f67463          	bgeu	a2,a5,17a <.LBB4_29+0x156>
 156:	02079613          	slli	a2,a5,0x20
 15a:	02065693          	srli	a3,a2,0x20
 15e:	4669                	li	a2,26
 160:	02c68963          	beq	a3,a2,192 <.LBB4_29+0x16e>
 164:	4665                	li	a2,25
 166:	02c69863          	bne	a3,a2,196 <.LBB4_29+0x172>
 16a:	00189513          	slli	a0,a7,0x1
 16e:	03ff5613          	srli	a2,t5,0x3f
 172:	00c56e33          	or	t3,a0,a2
 176:	0f06                	slli	t5,t5,0x1
 178:	a849                	j	20a <.LBB4_29+0x1e6>
 17a:	0561                	addi	a0,a0,24
 17c:	07f57613          	andi	a2,a0,127
 180:	fc060613          	addi	a2,a2,-64 # 7f7fffc0 <.LBB0_15+0x7f7ffeca>
 184:	00064463          	bltz	a2,18c <.LBB4_29+0x168>
 188:	4501                	li	a0,0
 18a:	a855                	j	23e <.LBB4_29+0x21a>
 18c:	00af1533          	sll	a0,t5,a0
 190:	a07d                	j	23e <.LBB4_29+0x21a>
 192:	8e46                	mv	t3,a7
 194:	a89d                	j	20a <.LBB4_29+0x1e6>
 196:	06600613          	li	a2,102
 19a:	40a606b3          	sub	a3,a2,a0
 19e:	07f6f293          	andi	t0,a3,127
 1a2:	03f00313          	li	t1,63
 1a6:	01a50e93          	addi	t4,a0,26
 1aa:	07fef393          	andi	t2,t4,127
 1ae:	fc028513          	addi	a0,t0,-64
 1b2:	02054463          	bltz	a0,1da <.LBB4_29+0x1b6>
 1b6:	00a8d2b3          	srl	t0,a7,a0
 1ba:	4e01                	li	t3,0
 1bc:	fc038513          	addi	a0,t2,-64
 1c0:	02055d63          	bgez	a0,1fa <.LBB4_29+0x1d6>
 1c4:	40730533          	sub	a0,t1,t2
 1c8:	00a85533          	srl	a0,a6,a0
 1cc:	01d89633          	sll	a2,a7,t4
 1d0:	00a666b3          	or	a3,a2,a0
 1d4:	01df1533          	sll	a0,t5,t4
 1d8:	a025                	j	200 <.LBB4_29+0x1dc>
 1da:	40530533          	sub	a0,t1,t0
 1de:	00189613          	slli	a2,a7,0x1
 1e2:	00a61533          	sll	a0,a2,a0
 1e6:	00df5633          	srl	a2,t5,a3
 1ea:	00a662b3          	or	t0,a2,a0
 1ee:	00d8de33          	srl	t3,a7,a3
 1f2:	fc038513          	addi	a0,t2,-64
 1f6:	fc0547e3          	bltz	a0,1c4 <.LBB4_29+0x1a0>
 1fa:	00af16b3          	sll	a3,t5,a0
 1fe:	4501                	li	a0,0
 200:	8d55                	or	a0,a0,a3
 202:	00a03533          	snez	a0,a0
 206:	00a2ef33          	or	t5,t0,a0
 20a:	002f5513          	srli	a0,t5,0x2
 20e:	8905                	andi	a0,a0,1
 210:	01e56633          	or	a2,a0,t5
 214:	00160513          	addi	a0,a2,1
 218:	040006b7          	lui	a3,0x4000
 21c:	00d57733          	and	a4,a0,a3
 220:	4689                	li	a3,2
 222:	c319                	beqz	a4,228 <.LBB4_29+0x204>
 224:	468d                	li	a3,3
 226:	8fbe                	mv	t6,a5
 228:	00c53633          	sltu	a2,a0,a2
 22c:	9672                	add	a2,a2,t3
 22e:	00d55533          	srl	a0,a0,a3
 232:	0606                	slli	a2,a2,0x1
 234:	03f6c693          	xori	a3,a3,63
 238:	00d61633          	sll	a2,a2,a3
 23c:	8d51                	or	a0,a0,a2
 23e:	00800637          	lui	a2,0x800
 242:	367d                	addiw	a2,a2,-1
 244:	8d71                	and	a0,a0,a2
 246:	4605                	li	a2,1
 248:	067e                	slli	a2,a2,0x1f
 24a:	9181                	srli	a1,a1,0x20
 24c:	8df1                	and	a1,a1,a2
 24e:	8d4d                	or	a0,a0,a1
 250:	017f9593          	slli	a1,t6,0x17
 254:	3f800637          	lui	a2,0x3f800
 258:	95b2                	add	a1,a1,a2
 25a:	7f800637          	lui	a2,0x7f800
 25e:	8df1                	and	a1,a1,a2
 260:	8d4d                	or	a0,a0,a1
 262:	f0050053          	fmv.w.x	ft0,a0
 266:	e0000553          	fmv.x.w	a0,ft0
 26a:	6402                	ld	s0,0(sp)
 26c:	60a2                	ld	ra,8(sp)
 26e:	0141                	addi	sp,sp,16
 270:	8082                	ret

Disassembly of section .text.__floattidf:

0000000000000000 <__floattidf>:
   0:	1141                	addi	sp,sp,-16
   2:	e406                	sd	ra,8(sp)
   4:	e022                	sd	s0,0(sp)
   6:	0800                	addi	s0,sp,16
   8:	00b56633          	or	a2,a0,a1
   c:	ce01                	beqz	a2,24 <.LBB5_29>
   e:	0205c263          	bltz	a1,32 <.LBB5_29+0xe>
  12:	8f2a                	mv	t5,a0
  14:	0205d363          	bgez	a1,3a <.LBB5_29+0x16>
  18:	00a03533          	snez	a0,a0
  1c:	952e                	add	a0,a0,a1
  1e:	40a008b3          	neg	a7,a0
  22:	a829                	j	3c <.LBB5_29+0x18>

0000000000000024 <.LBB5_29>:
  24:	00000517          	auipc	a0,0x0
  28:	00050513          	mv	a0,a0
  2c:	00053007          	fld	ft0,0(a0) # 24 <.LBB5_29>
  30:	ac35                	j	26c <.LBB5_29+0x248>
  32:	40a00f33          	neg	t5,a0
  36:	fe05c1e3          	bltz	a1,18 <__floattidf+0x18>
  3a:	88ae                	mv	a7,a1
  3c:	001f5813          	srli	a6,t5,0x1
  40:	05555537          	lui	a0,0x5555
  44:	5555051b          	addiw	a0,a0,1365
  48:	0532                	slli	a0,a0,0xc
  4a:	55550513          	addi	a0,a0,1365 # 5555555 <.LBB0_15+0x555545f>
  4e:	0532                	slli	a0,a0,0xc
  50:	55550513          	addi	a0,a0,1365
  54:	0532                	slli	a0,a0,0xc
  56:	55550293          	addi	t0,a0,1365
  5a:	03333537          	lui	a0,0x3333
  5e:	3335051b          	addiw	a0,a0,819
  62:	0532                	slli	a0,a0,0xc
  64:	33350513          	addi	a0,a0,819 # 3333333 <.LBB0_15+0x333323d>
  68:	0532                	slli	a0,a0,0xc
  6a:	33350513          	addi	a0,a0,819
  6e:	0532                	slli	a0,a0,0xc
  70:	33350713          	addi	a4,a0,819
  74:	00f0f537          	lui	a0,0xf0f
  78:	0f15051b          	addiw	a0,a0,241
  7c:	0532                	slli	a0,a0,0xc
  7e:	f0f50513          	addi	a0,a0,-241 # f0ef0f <.LBB0_15+0xf0ee19>
  82:	0532                	slli	a0,a0,0xc
  84:	0f150513          	addi	a0,a0,241
  88:	0532                	slli	a0,a0,0xc
  8a:	f0f50793          	addi	a5,a0,-241
  8e:	01010537          	lui	a0,0x1010
  92:	1015051b          	addiw	a0,a0,257
  96:	0542                	slli	a0,a0,0x10
  98:	10150513          	addi	a0,a0,257 # 1010101 <.LBB0_15+0x101000b>
  9c:	0542                	slli	a0,a0,0x10
  9e:	10150513          	addi	a0,a0,257
  a2:	04089963          	bnez	a7,f4 <.LBB5_29+0xd0>
  a6:	010f6633          	or	a2,t5,a6
  aa:	00265693          	srli	a3,a2,0x2
  ae:	8e55                	or	a2,a2,a3
  b0:	00465693          	srli	a3,a2,0x4
  b4:	8e55                	or	a2,a2,a3
  b6:	00865693          	srli	a3,a2,0x8
  ba:	8e55                	or	a2,a2,a3
  bc:	01065693          	srli	a3,a2,0x10
  c0:	8e55                	or	a2,a2,a3
  c2:	02065693          	srli	a3,a2,0x20
  c6:	8e55                	or	a2,a2,a3
  c8:	fff64613          	not	a2,a2
  cc:	00165693          	srli	a3,a2,0x1
  d0:	0056f6b3          	and	a3,a3,t0
  d4:	8e15                	sub	a2,a2,a3
  d6:	00e676b3          	and	a3,a2,a4
  da:	8209                	srli	a2,a2,0x2
  dc:	8e79                	and	a2,a2,a4
  de:	9636                	add	a2,a2,a3
  e0:	00465693          	srli	a3,a2,0x4
  e4:	9636                	add	a2,a2,a3
  e6:	8e7d                	and	a2,a2,a5
  e8:	02a60533          	mul	a0,a2,a0
  ec:	9161                	srli	a0,a0,0x38
  ee:	04050513          	addi	a0,a0,64
  f2:	a0b9                	j	140 <.LBB5_29+0x11c>
  f4:	0018d613          	srli	a2,a7,0x1
  f8:	00c8e633          	or	a2,a7,a2
  fc:	00265693          	srli	a3,a2,0x2
 100:	8e55                	or	a2,a2,a3
 102:	00465693          	srli	a3,a2,0x4
 106:	8e55                	or	a2,a2,a3
 108:	00865693          	srli	a3,a2,0x8
 10c:	8e55                	or	a2,a2,a3
 10e:	01065693          	srli	a3,a2,0x10
 112:	8e55                	or	a2,a2,a3
 114:	02065693          	srli	a3,a2,0x20
 118:	8e55                	or	a2,a2,a3
 11a:	fff64613          	not	a2,a2
 11e:	00165693          	srli	a3,a2,0x1
 122:	0056f6b3          	and	a3,a3,t0
 126:	8e15                	sub	a2,a2,a3
 128:	00e676b3          	and	a3,a2,a4
 12c:	8209                	srli	a2,a2,0x2
 12e:	8e79                	and	a2,a2,a4
 130:	9636                	add	a2,a2,a3
 132:	00465693          	srli	a3,a2,0x4
 136:	9636                	add	a2,a2,a3
 138:	8e7d                	and	a2,a2,a5
 13a:	02a60533          	mul	a0,a2,a0
 13e:	9161                	srli	a0,a0,0x38
 140:	07f00613          	li	a2,127
 144:	40a60fb3          	sub	t6,a2,a0
 148:	08000613          	li	a2,128
 14c:	40a607b3          	sub	a5,a2,a0
 150:	03500613          	li	a2,53
 154:	02f67663          	bgeu	a2,a5,180 <.LBB5_29+0x15c>
 158:	02079613          	slli	a2,a5,0x20
 15c:	02065693          	srli	a3,a2,0x20
 160:	03700613          	li	a2,55
 164:	02c68b63          	beq	a3,a2,19a <.LBB5_29+0x176>
 168:	03600613          	li	a2,54
 16c:	02c69963          	bne	a3,a2,19e <.LBB5_29+0x17a>
 170:	00189513          	slli	a0,a7,0x1
 174:	03ff5613          	srli	a2,t5,0x3f
 178:	00c56e33          	or	t3,a0,a2
 17c:	0f06                	slli	t5,t5,0x1
 17e:	a851                	j	212 <.LBB5_29+0x1ee>
 180:	03550513          	addi	a0,a0,53
 184:	07f57613          	andi	a2,a0,127
 188:	fc060613          	addi	a2,a2,-64 # 7f7fffc0 <.LBB0_15+0x7f7ffeca>
 18c:	00064463          	bltz	a2,194 <.LBB5_29+0x170>
 190:	4501                	li	a0,0
 192:	a85d                	j	248 <.LBB5_29+0x224>
 194:	00af1533          	sll	a0,t5,a0
 198:	a845                	j	248 <.LBB5_29+0x224>
 19a:	8e46                	mv	t3,a7
 19c:	a89d                	j	212 <.LBB5_29+0x1ee>
 19e:	04900613          	li	a2,73
 1a2:	40a606b3          	sub	a3,a2,a0
 1a6:	07f6f293          	andi	t0,a3,127
 1aa:	03f00313          	li	t1,63
 1ae:	03750e93          	addi	t4,a0,55
 1b2:	07fef393          	andi	t2,t4,127
 1b6:	fc028513          	addi	a0,t0,-64
 1ba:	02054463          	bltz	a0,1e2 <.LBB5_29+0x1be>
 1be:	00a8d2b3          	srl	t0,a7,a0
 1c2:	4e01                	li	t3,0
 1c4:	fc038513          	addi	a0,t2,-64
 1c8:	02055d63          	bgez	a0,202 <.LBB5_29+0x1de>
 1cc:	40730533          	sub	a0,t1,t2
 1d0:	00a85533          	srl	a0,a6,a0
 1d4:	01d89633          	sll	a2,a7,t4
 1d8:	00a666b3          	or	a3,a2,a0
 1dc:	01df1533          	sll	a0,t5,t4
 1e0:	a025                	j	208 <.LBB5_29+0x1e4>
 1e2:	40530533          	sub	a0,t1,t0
 1e6:	00189613          	slli	a2,a7,0x1
 1ea:	00a61533          	sll	a0,a2,a0
 1ee:	00df5633          	srl	a2,t5,a3
 1f2:	00a662b3          	or	t0,a2,a0
 1f6:	00d8de33          	srl	t3,a7,a3
 1fa:	fc038513          	addi	a0,t2,-64
 1fe:	fc0547e3          	bltz	a0,1cc <.LBB5_29+0x1a8>
 202:	00af16b3          	sll	a3,t5,a0
 206:	4501                	li	a0,0
 208:	8d55                	or	a0,a0,a3
 20a:	00a03533          	snez	a0,a0
 20e:	00a2ef33          	or	t5,t0,a0
 212:	002f5513          	srli	a0,t5,0x2
 216:	8905                	andi	a0,a0,1
 218:	01e56533          	or	a0,a0,t5
 21c:	4605                	li	a2,1
 21e:	03761693          	slli	a3,a2,0x37
 222:	00150613          	addi	a2,a0,1
 226:	00d67733          	and	a4,a2,a3
 22a:	4689                	li	a3,2
 22c:	c319                	beqz	a4,232 <.LBB5_29+0x20e>
 22e:	468d                	li	a3,3
 230:	8fbe                	mv	t6,a5
 232:	00a63533          	sltu	a0,a2,a0
 236:	9572                	add	a0,a0,t3
 238:	00d65633          	srl	a2,a2,a3
 23c:	0506                	slli	a0,a0,0x1
 23e:	03f6c693          	xori	a3,a3,63
 242:	00d51533          	sll	a0,a0,a3
 246:	8d51                	or	a0,a0,a2
 248:	567d                	li	a2,-1
 24a:	167e                	slli	a2,a2,0x3f
 24c:	8df1                	and	a1,a1,a2
 24e:	4605                	li	a2,1
 250:	1652                	slli	a2,a2,0x34
 252:	167d                	addi	a2,a2,-1
 254:	8d71                	and	a0,a0,a2
 256:	8d4d                	or	a0,a0,a1
 258:	7ff00593          	li	a1,2047
 25c:	15d2                	slli	a1,a1,0x34
 25e:	3fff8613          	addi	a2,t6,1023
 262:	1652                	slli	a2,a2,0x34
 264:	8df1                	and	a1,a1,a2
 266:	8d4d                	or	a0,a0,a1
 268:	f2050053          	fmv.d.x	ft0,a0
 26c:	e2000553          	fmv.x.d	a0,ft0
 270:	6402                	ld	s0,0(sp)
 272:	60a2                	ld	ra,8(sp)
 274:	0141                	addi	sp,sp,16
 276:	8082                	ret

Disassembly of section .text.__floatunsisf:

0000000000000000 <__floatunsisf>:
   0:	1141                	addi	sp,sp,-16
   2:	e406                	sd	ra,8(sp)
   4:	e022                	sd	s0,0(sp)
   6:	0800                	addi	s0,sp,16
   8:	c16d                	beqz	a0,ea <.LBB6_15>
   a:	02000593          	li	a1,32
   e:	02000693          	li	a3,32
  12:	c95d                	beqz	a0,c8 <__floatunsisf+0xc8>
  14:	0015561b          	srliw	a2,a0,0x1
  18:	02051693          	slli	a3,a0,0x20
  1c:	9281                	srli	a3,a3,0x20
  1e:	8e55                	or	a2,a2,a3
  20:	00265693          	srli	a3,a2,0x2
  24:	8e55                	or	a2,a2,a3
  26:	00465693          	srli	a3,a2,0x4
  2a:	8e55                	or	a2,a2,a3
  2c:	00865693          	srli	a3,a2,0x8
  30:	8e55                	or	a2,a2,a3
  32:	01065693          	srli	a3,a2,0x10
  36:	8e55                	or	a2,a2,a3
  38:	02065693          	srli	a3,a2,0x20
  3c:	8e55                	or	a2,a2,a3
  3e:	055556b7          	lui	a3,0x5555
  42:	5556869b          	addiw	a3,a3,1365
  46:	06b2                	slli	a3,a3,0xc
  48:	55568693          	addi	a3,a3,1365 # 5555555 <.LBB0_15+0x555545f>
  4c:	06b2                	slli	a3,a3,0xc
  4e:	55568693          	addi	a3,a3,1365
  52:	06b2                	slli	a3,a3,0xc
  54:	55568693          	addi	a3,a3,1365
  58:	fff64613          	not	a2,a2
  5c:	00165713          	srli	a4,a2,0x1
  60:	8ef9                	and	a3,a3,a4
  62:	8e15                	sub	a2,a2,a3
  64:	033336b7          	lui	a3,0x3333
  68:	3336869b          	addiw	a3,a3,819
  6c:	06b2                	slli	a3,a3,0xc
  6e:	33368693          	addi	a3,a3,819 # 3333333 <.LBB0_15+0x333323d>
  72:	06b2                	slli	a3,a3,0xc
  74:	33368693          	addi	a3,a3,819
  78:	06b2                	slli	a3,a3,0xc
  7a:	33368693          	addi	a3,a3,819
  7e:	00d67733          	and	a4,a2,a3
  82:	8209                	srli	a2,a2,0x2
  84:	8e75                	and	a2,a2,a3
  86:	963a                	add	a2,a2,a4
  88:	00465693          	srli	a3,a2,0x4
  8c:	9636                	add	a2,a2,a3
  8e:	00f0f6b7          	lui	a3,0xf0f
  92:	0f16869b          	addiw	a3,a3,241
  96:	06b2                	slli	a3,a3,0xc
  98:	f0f68693          	addi	a3,a3,-241 # f0ef0f <.LBB0_15+0xf0ee19>
  9c:	06b2                	slli	a3,a3,0xc
  9e:	0f168693          	addi	a3,a3,241
  a2:	06b2                	slli	a3,a3,0xc
  a4:	f0f68693          	addi	a3,a3,-241
  a8:	8e75                	and	a2,a2,a3
  aa:	010106b7          	lui	a3,0x1010
  ae:	1016869b          	addiw	a3,a3,257
  b2:	06c2                	slli	a3,a3,0x10
  b4:	10168693          	addi	a3,a3,257 # 1010101 <.LBB0_15+0x101000b>
  b8:	06c2                	slli	a3,a3,0x10
  ba:	10168693          	addi	a3,a3,257
  be:	02d60633          	mul	a2,a2,a3
  c2:	9261                	srli	a2,a2,0x38
  c4:	fe060693          	addi	a3,a2,-32
  c8:	467d                	li	a2,31
  ca:	8e15                	sub	a2,a2,a3
  cc:	0185571b          	srliw	a4,a0,0x18
  d0:	c705                	beqz	a4,f8 <.LBB6_15+0xe>
  d2:	8d95                	sub	a1,a1,a3
  d4:	4769                	li	a4,26
  d6:	04e58063          	beq	a1,a4,116 <.LBB6_15+0x2c>
  da:	02059713          	slli	a4,a1,0x20
  de:	9301                	srli	a4,a4,0x20
  e0:	47e5                	li	a5,25
  e2:	02f71063          	bne	a4,a5,102 <.LBB6_15+0x18>
  e6:	0506                	slli	a0,a0,0x1
  e8:	a03d                	j	116 <.LBB6_15+0x2c>

00000000000000ea <.LBB6_15>:
  ea:	00000517          	auipc	a0,0x0
  ee:	00050513          	mv	a0,a0
  f2:	00052007          	flw	ft0,0(a0) # ea <.LBB6_15>
  f6:	a8b1                	j	152 <.LBB6_15+0x68>
  f8:	01868593          	addi	a1,a3,24
  fc:	00b5153b          	sllw	a0,a0,a1
 100:	a815                	j	134 <.LBB6_15+0x4a>
 102:	4719                	li	a4,6
 104:	8f15                	sub	a4,a4,a3
 106:	00e5573b          	srlw	a4,a0,a4
 10a:	06e9                	addi	a3,a3,26
 10c:	00d5153b          	sllw	a0,a0,a3
 110:	00a03533          	snez	a0,a0
 114:	8d59                	or	a0,a0,a4
 116:	00255693          	srli	a3,a0,0x2
 11a:	8a85                	andi	a3,a3,1
 11c:	8d55                	or	a0,a0,a3
 11e:	0505                	addi	a0,a0,1
 120:	040006b7          	lui	a3,0x4000
 124:	00d57733          	and	a4,a0,a3
 128:	4689                	li	a3,2
 12a:	c319                	beqz	a4,130 <.LBB6_15+0x46>
 12c:	468d                	li	a3,3
 12e:	862e                	mv	a2,a1
 130:	00d5553b          	srlw	a0,a0,a3
 134:	008005b7          	lui	a1,0x800
 138:	35fd                	addiw	a1,a1,-1
 13a:	8d6d                	and	a0,a0,a1
 13c:	01761593          	slli	a1,a2,0x17
 140:	3f800637          	lui	a2,0x3f800
 144:	95b2                	add	a1,a1,a2
 146:	7f800637          	lui	a2,0x7f800
 14a:	8df1                	and	a1,a1,a2
 14c:	8d4d                	or	a0,a0,a1
 14e:	f0050053          	fmv.w.x	ft0,a0
 152:	e0000553          	fmv.x.w	a0,ft0
 156:	6402                	ld	s0,0(sp)
 158:	60a2                	ld	ra,8(sp)
 15a:	0141                	addi	sp,sp,16
 15c:	8082                	ret

Disassembly of section .text.__floatunsidf:

0000000000000000 <__floatunsidf>:
   0:	1141                	addi	sp,sp,-16
   2:	e406                	sd	ra,8(sp)
   4:	e022                	sd	s0,0(sp)
   6:	0800                	addi	s0,sp,16
   8:	cd4d                	beqz	a0,c2 <.LBB7_7>
   a:	02051593          	slli	a1,a0,0x20
   e:	c169                	beqz	a0,d0 <.LBB7_7+0xe>
  10:	0015551b          	srliw	a0,a0,0x1
  14:	0205d613          	srli	a2,a1,0x20
  18:	8d51                	or	a0,a0,a2
  1a:	00255613          	srli	a2,a0,0x2
  1e:	8d51                	or	a0,a0,a2
  20:	00455613          	srli	a2,a0,0x4
  24:	8d51                	or	a0,a0,a2
  26:	00855613          	srli	a2,a0,0x8
  2a:	8d51                	or	a0,a0,a2
  2c:	01055613          	srli	a2,a0,0x10
  30:	8d51                	or	a0,a0,a2
  32:	02055613          	srli	a2,a0,0x20
  36:	8d51                	or	a0,a0,a2
  38:	05555637          	lui	a2,0x5555
  3c:	5556061b          	addiw	a2,a2,1365
  40:	0632                	slli	a2,a2,0xc
  42:	55560613          	addi	a2,a2,1365 # 5555555 <.LBB0_15+0x555545f>
  46:	0632                	slli	a2,a2,0xc
  48:	55560613          	addi	a2,a2,1365
  4c:	0632                	slli	a2,a2,0xc
  4e:	55560613          	addi	a2,a2,1365
  52:	fff54513          	not	a0,a0
  56:	00155693          	srli	a3,a0,0x1
  5a:	8e75                	and	a2,a2,a3
  5c:	8d11                	sub	a0,a0,a2
  5e:	03333637          	lui	a2,0x3333
  62:	3336061b          	addiw	a2,a2,819
  66:	0632                	slli	a2,a2,0xc
  68:	33360613          	addi	a2,a2,819 # 3333333 <.LBB0_15+0x333323d>
  6c:	0632                	slli	a2,a2,0xc
  6e:	33360613          	addi	a2,a2,819
  72:	0632                	slli	a2,a2,0xc
  74:	33360613          	addi	a2,a2,819
  78:	00c576b3          	and	a3,a0,a2
  7c:	8109                	srli	a0,a0,0x2
  7e:	8d71                	and	a0,a0,a2
  80:	9536                	add	a0,a0,a3
  82:	00455613          	srli	a2,a0,0x4
  86:	9532                	add	a0,a0,a2
  88:	00f0f637          	lui	a2,0xf0f
  8c:	0f16061b          	addiw	a2,a2,241
  90:	0632                	slli	a2,a2,0xc
  92:	f0f60613          	addi	a2,a2,-241 # f0ef0f <.LBB0_15+0xf0ee19>
  96:	0632                	slli	a2,a2,0xc
  98:	0f160613          	addi	a2,a2,241
  9c:	0632                	slli	a2,a2,0xc
  9e:	f0f60613          	addi	a2,a2,-241
  a2:	8d71                	and	a0,a0,a2
  a4:	01010637          	lui	a2,0x1010
  a8:	1016061b          	addiw	a2,a2,257
  ac:	0642                	slli	a2,a2,0x10
  ae:	10160613          	addi	a2,a2,257 # 1010101 <.LBB0_15+0x101000b>
  b2:	0642                	slli	a2,a2,0x10
  b4:	10160613          	addi	a2,a2,257
  b8:	02c50533          	mul	a0,a0,a2
  bc:	9161                	srli	a0,a0,0x38
  be:	1501                	addi	a0,a0,-32
  c0:	a811                	j	d4 <.LBB7_7+0x12>

00000000000000c2 <.LBB7_7>:
  c2:	00000517          	auipc	a0,0x0
  c6:	00050513          	mv	a0,a0
  ca:	00053007          	fld	ft0,0(a0) # c2 <.LBB7_7>
  ce:	a025                	j	f6 <.LBB7_7+0x34>
  d0:	02000513          	li	a0,32
  d4:	9181                	srli	a1,a1,0x20
  d6:	01550613          	addi	a2,a0,21
  da:	00c595b3          	sll	a1,a1,a2
  de:	4605                	li	a2,1
  e0:	1652                	slli	a2,a2,0x34
  e2:	167d                	addi	a2,a2,-1
  e4:	8df1                	and	a1,a1,a2
  e6:	41e00613          	li	a2,1054
  ea:	40a60533          	sub	a0,a2,a0
  ee:	1552                	slli	a0,a0,0x34
  f0:	8d4d                	or	a0,a0,a1
  f2:	f2050053          	fmv.d.x	ft0,a0
  f6:	e2000553          	fmv.x.d	a0,ft0
  fa:	6402                	ld	s0,0(sp)
  fc:	60a2                	ld	ra,8(sp)
  fe:	0141                	addi	sp,sp,16
 100:	8082                	ret

Disassembly of section .text.__floatundisf:

0000000000000000 <__floatundisf>:
   0:	1141                	addi	sp,sp,-16
   2:	e406                	sd	ra,8(sp)
   4:	e022                	sd	s0,0(sp)
   6:	0800                	addi	s0,sp,16
   8:	cd71                	beqz	a0,e4 <.LBB8_15>
   a:	04000593          	li	a1,64
   e:	04000693          	li	a3,64
  12:	c55d                	beqz	a0,c0 <__floatundisf+0xc0>
  14:	00155613          	srli	a2,a0,0x1
  18:	8e49                	or	a2,a2,a0
  1a:	00265693          	srli	a3,a2,0x2
  1e:	8e55                	or	a2,a2,a3
  20:	00465693          	srli	a3,a2,0x4
  24:	8e55                	or	a2,a2,a3
  26:	00865693          	srli	a3,a2,0x8
  2a:	8e55                	or	a2,a2,a3
  2c:	01065693          	srli	a3,a2,0x10
  30:	8e55                	or	a2,a2,a3
  32:	02065693          	srli	a3,a2,0x20
  36:	8e55                	or	a2,a2,a3
  38:	055556b7          	lui	a3,0x5555
  3c:	5556869b          	addiw	a3,a3,1365
  40:	06b2                	slli	a3,a3,0xc
  42:	55568693          	addi	a3,a3,1365 # 5555555 <.LBB0_15+0x555545f>
  46:	06b2                	slli	a3,a3,0xc
  48:	55568693          	addi	a3,a3,1365
  4c:	06b2                	slli	a3,a3,0xc
  4e:	fff64613          	not	a2,a2
  52:	55568693          	addi	a3,a3,1365
  56:	00165713          	srli	a4,a2,0x1
  5a:	8ef9                	and	a3,a3,a4
  5c:	8e15                	sub	a2,a2,a3
  5e:	033336b7          	lui	a3,0x3333
  62:	3336869b          	addiw	a3,a3,819
  66:	06b2                	slli	a3,a3,0xc
  68:	33368693          	addi	a3,a3,819 # 3333333 <.LBB0_15+0x333323d>
  6c:	06b2                	slli	a3,a3,0xc
  6e:	33368693          	addi	a3,a3,819
  72:	06b2                	slli	a3,a3,0xc
  74:	33368693          	addi	a3,a3,819
  78:	00d67733          	and	a4,a2,a3
  7c:	8209                	srli	a2,a2,0x2
  7e:	8e75                	and	a2,a2,a3
  80:	963a                	add	a2,a2,a4
  82:	00465693          	srli	a3,a2,0x4
  86:	9636                	add	a2,a2,a3
  88:	00f0f6b7          	lui	a3,0xf0f
  8c:	0f16869b          	addiw	a3,a3,241
  90:	06b2                	slli	a3,a3,0xc
  92:	f0f68693          	addi	a3,a3,-241 # f0ef0f <.LBB0_15+0xf0ee19>
  96:	06b2                	slli	a3,a3,0xc
  98:	0f168693          	addi	a3,a3,241
  9c:	06b2                	slli	a3,a3,0xc
  9e:	f0f68693          	addi	a3,a3,-241
  a2:	8e75                	and	a2,a2,a3
  a4:	010106b7          	lui	a3,0x1010
  a8:	1016869b          	addiw	a3,a3,257
  ac:	06c2                	slli	a3,a3,0x10
  ae:	10168693          	addi	a3,a3,257 # 1010101 <.LBB0_15+0x101000b>
  b2:	06c2                	slli	a3,a3,0x10
  b4:	10168693          	addi	a3,a3,257
  b8:	02d60633          	mul	a2,a2,a3
  bc:	03865693          	srli	a3,a2,0x38
  c0:	03f00613          	li	a2,63
  c4:	8e15                	sub	a2,a2,a3
  c6:	8d95                	sub	a1,a1,a3
  c8:	4761                	li	a4,24
  ca:	02b77463          	bgeu	a4,a1,f2 <.LBB8_15+0xe>
  ce:	4769                	li	a4,26
  d0:	04e58163          	beq	a1,a4,112 <.LBB8_15+0x2e>
  d4:	02059713          	slli	a4,a1,0x20
  d8:	9301                	srli	a4,a4,0x20
  da:	47e5                	li	a5,25
  dc:	02f71063          	bne	a4,a5,fc <.LBB8_15+0x18>
  e0:	0506                	slli	a0,a0,0x1
  e2:	a805                	j	112 <.LBB8_15+0x2e>

00000000000000e4 <.LBB8_15>:
  e4:	00000517          	auipc	a0,0x0
  e8:	00050513          	mv	a0,a0
  ec:	00052007          	flw	ft0,0(a0) # e4 <.LBB8_15>
  f0:	a8b9                	j	14e <.LBB8_15+0x6a>
  f2:	01868593          	addi	a1,a3,24
  f6:	00b51533          	sll	a0,a0,a1
  fa:	a81d                	j	130 <.LBB8_15+0x4c>
  fc:	02600713          	li	a4,38
 100:	8f15                	sub	a4,a4,a3
 102:	00e55733          	srl	a4,a0,a4
 106:	06e9                	addi	a3,a3,26
 108:	00d51533          	sll	a0,a0,a3
 10c:	00a03533          	snez	a0,a0
 110:	8d59                	or	a0,a0,a4
 112:	00255693          	srli	a3,a0,0x2
 116:	8a85                	andi	a3,a3,1
 118:	8d55                	or	a0,a0,a3
 11a:	0505                	addi	a0,a0,1
 11c:	040006b7          	lui	a3,0x4000
 120:	00d57733          	and	a4,a0,a3
 124:	4689                	li	a3,2
 126:	c319                	beqz	a4,12c <.LBB8_15+0x48>
 128:	468d                	li	a3,3
 12a:	862e                	mv	a2,a1
 12c:	00d55533          	srl	a0,a0,a3
 130:	008005b7          	lui	a1,0x800
 134:	35fd                	addiw	a1,a1,-1
 136:	8d6d                	and	a0,a0,a1
 138:	01761593          	slli	a1,a2,0x17
 13c:	3f800637          	lui	a2,0x3f800
 140:	95b2                	add	a1,a1,a2
 142:	7f800637          	lui	a2,0x7f800
 146:	8df1                	and	a1,a1,a2
 148:	8d4d                	or	a0,a0,a1
 14a:	f0050053          	fmv.w.x	ft0,a0
 14e:	e0000553          	fmv.x.w	a0,ft0
 152:	6402                	ld	s0,0(sp)
 154:	60a2                	ld	ra,8(sp)
 156:	0141                	addi	sp,sp,16
 158:	8082                	ret

Disassembly of section .text.__floatundidf:

0000000000000000 <__floatundidf>:
   0:	1141                	addi	sp,sp,-16
   2:	e406                	sd	ra,8(sp)
   4:	e022                	sd	s0,0(sp)
   6:	0800                	addi	s0,sp,16
   8:	c16d                	beqz	a0,ea <.LBB9_15>
   a:	04000613          	li	a2,64
   e:	04000693          	li	a3,64
  12:	c55d                	beqz	a0,c0 <__floatundidf+0xc0>
  14:	00155593          	srli	a1,a0,0x1
  18:	8dc9                	or	a1,a1,a0
  1a:	0025d693          	srli	a3,a1,0x2
  1e:	8dd5                	or	a1,a1,a3
  20:	0045d693          	srli	a3,a1,0x4
  24:	8dd5                	or	a1,a1,a3
  26:	0085d693          	srli	a3,a1,0x8
  2a:	8dd5                	or	a1,a1,a3
  2c:	0105d693          	srli	a3,a1,0x10
  30:	8dd5                	or	a1,a1,a3
  32:	0205d693          	srli	a3,a1,0x20
  36:	8dd5                	or	a1,a1,a3
  38:	055556b7          	lui	a3,0x5555
  3c:	5556869b          	addiw	a3,a3,1365
  40:	06b2                	slli	a3,a3,0xc
  42:	55568693          	addi	a3,a3,1365 # 5555555 <.LBB0_15+0x555545f>
  46:	06b2                	slli	a3,a3,0xc
  48:	55568693          	addi	a3,a3,1365
  4c:	06b2                	slli	a3,a3,0xc
  4e:	fff5c593          	not	a1,a1
  52:	55568693          	addi	a3,a3,1365
  56:	0015d713          	srli	a4,a1,0x1
  5a:	8ef9                	and	a3,a3,a4
  5c:	8d95                	sub	a1,a1,a3
  5e:	033336b7          	lui	a3,0x3333
  62:	3336869b          	addiw	a3,a3,819
  66:	06b2                	slli	a3,a3,0xc
  68:	33368693          	addi	a3,a3,819 # 3333333 <.LBB0_15+0x333323d>
  6c:	06b2                	slli	a3,a3,0xc
  6e:	33368693          	addi	a3,a3,819
  72:	06b2                	slli	a3,a3,0xc
  74:	33368693          	addi	a3,a3,819
  78:	00d5f733          	and	a4,a1,a3
  7c:	8189                	srli	a1,a1,0x2
  7e:	8df5                	and	a1,a1,a3
  80:	95ba                	add	a1,a1,a4
  82:	0045d693          	srli	a3,a1,0x4
  86:	95b6                	add	a1,a1,a3
  88:	00f0f6b7          	lui	a3,0xf0f
  8c:	0f16869b          	addiw	a3,a3,241
  90:	06b2                	slli	a3,a3,0xc
  92:	f0f68693          	addi	a3,a3,-241 # f0ef0f <.LBB0_15+0xf0ee19>
  96:	06b2                	slli	a3,a3,0xc
  98:	0f168693          	addi	a3,a3,241
  9c:	06b2                	slli	a3,a3,0xc
  9e:	f0f68693          	addi	a3,a3,-241
  a2:	8df5                	and	a1,a1,a3
  a4:	010106b7          	lui	a3,0x1010
  a8:	1016869b          	addiw	a3,a3,257
  ac:	06c2                	slli	a3,a3,0x10
  ae:	10168693          	addi	a3,a3,257 # 1010101 <.LBB0_15+0x101000b>
  b2:	06c2                	slli	a3,a3,0x10
  b4:	10168693          	addi	a3,a3,257
  b8:	02d585b3          	mul	a1,a1,a3
  bc:	0385d693          	srli	a3,a1,0x38
  c0:	03f00593          	li	a1,63
  c4:	8d95                	sub	a1,a1,a3
  c6:	8e15                	sub	a2,a2,a3
  c8:	03500713          	li	a4,53
  cc:	02c77663          	bgeu	a4,a2,f8 <.LBB9_15+0xe>
  d0:	03700713          	li	a4,55
  d4:	04e60263          	beq	a2,a4,118 <.LBB9_15+0x2e>
  d8:	02061713          	slli	a4,a2,0x20
  dc:	9301                	srli	a4,a4,0x20
  de:	03600793          	li	a5,54
  e2:	02f71063          	bne	a4,a5,102 <.LBB9_15+0x18>
  e6:	0506                	slli	a0,a0,0x1
  e8:	a805                	j	118 <.LBB9_15+0x2e>

00000000000000ea <.LBB9_15>:
  ea:	00000517          	auipc	a0,0x0
  ee:	00050513          	mv	a0,a0
  f2:	00053007          	fld	ft0,0(a0) # ea <.LBB9_15>
  f6:	a8b1                	j	152 <.LBB9_15+0x68>
  f8:	03568613          	addi	a2,a3,53
  fc:	00c51533          	sll	a0,a0,a2
 100:	a81d                	j	136 <.LBB9_15+0x4c>
 102:	4725                	li	a4,9
 104:	8f15                	sub	a4,a4,a3
 106:	00e55733          	srl	a4,a0,a4
 10a:	03768693          	addi	a3,a3,55
 10e:	00d51533          	sll	a0,a0,a3
 112:	00a03533          	snez	a0,a0
 116:	8d59                	or	a0,a0,a4
 118:	00255693          	srli	a3,a0,0x2
 11c:	8a85                	andi	a3,a3,1
 11e:	8d55                	or	a0,a0,a3
 120:	0505                	addi	a0,a0,1
 122:	4685                	li	a3,1
 124:	16de                	slli	a3,a3,0x37
 126:	00d57733          	and	a4,a0,a3
 12a:	4689                	li	a3,2
 12c:	c319                	beqz	a4,132 <.LBB9_15+0x48>
 12e:	468d                	li	a3,3
 130:	85b2                	mv	a1,a2
 132:	00d55533          	srl	a0,a0,a3
 136:	4605                	li	a2,1
 138:	1652                	slli	a2,a2,0x34
 13a:	167d                	addi	a2,a2,-1
 13c:	8d71                	and	a0,a0,a2
 13e:	7ff00613          	li	a2,2047
 142:	1652                	slli	a2,a2,0x34
 144:	3ff58593          	addi	a1,a1,1023 # 8003ff <.LBB0_15+0x800309>
 148:	15d2                	slli	a1,a1,0x34
 14a:	8df1                	and	a1,a1,a2
 14c:	8d4d                	or	a0,a0,a1
 14e:	f2050053          	fmv.d.x	ft0,a0
 152:	e2000553          	fmv.x.d	a0,ft0
 156:	6402                	ld	s0,0(sp)
 158:	60a2                	ld	ra,8(sp)
 15a:	0141                	addi	sp,sp,16
 15c:	8082                	ret

Disassembly of section .text.__floatuntisf:

0000000000000000 <__floatuntisf>:
   0:	1141                	addi	sp,sp,-16
   2:	e406                	sd	ra,8(sp)
   4:	e022                	sd	s0,0(sp)
   6:	0800                	addi	s0,sp,16
   8:	00b56633          	or	a2,a0,a1
   c:	ce4d                	beqz	a2,c6 <.LBB10_24>
   e:	00155813          	srli	a6,a0,0x1
  12:	05555637          	lui	a2,0x5555
  16:	5556061b          	addiw	a2,a2,1365
  1a:	0632                	slli	a2,a2,0xc
  1c:	55560613          	addi	a2,a2,1365 # 5555555 <.LBB0_15+0x555545f>
  20:	0632                	slli	a2,a2,0xc
  22:	55560613          	addi	a2,a2,1365
  26:	0632                	slli	a2,a2,0xc
  28:	55560893          	addi	a7,a2,1365
  2c:	03333637          	lui	a2,0x3333
  30:	3336061b          	addiw	a2,a2,819
  34:	0632                	slli	a2,a2,0xc
  36:	33360613          	addi	a2,a2,819 # 3333333 <.LBB0_15+0x333323d>
  3a:	0632                	slli	a2,a2,0xc
  3c:	33360613          	addi	a2,a2,819
  40:	0632                	slli	a2,a2,0xc
  42:	33360713          	addi	a4,a2,819
  46:	00f0f637          	lui	a2,0xf0f
  4a:	0f16061b          	addiw	a2,a2,241
  4e:	0632                	slli	a2,a2,0xc
  50:	f0f60613          	addi	a2,a2,-241 # f0ef0f <.LBB0_15+0xf0ee19>
  54:	0632                	slli	a2,a2,0xc
  56:	0f160613          	addi	a2,a2,241
  5a:	0632                	slli	a2,a2,0xc
  5c:	f0f60293          	addi	t0,a2,-241
  60:	01010637          	lui	a2,0x1010
  64:	1016061b          	addiw	a2,a2,257
  68:	0642                	slli	a2,a2,0x10
  6a:	10160613          	addi	a2,a2,257 # 1010101 <.LBB0_15+0x101000b>
  6e:	0642                	slli	a2,a2,0x10
  70:	10160613          	addi	a2,a2,257
  74:	e1a5                	bnez	a1,d4 <.LBB10_24+0xe>
  76:	010566b3          	or	a3,a0,a6
  7a:	0026d793          	srli	a5,a3,0x2
  7e:	8edd                	or	a3,a3,a5
  80:	0046d793          	srli	a5,a3,0x4
  84:	8edd                	or	a3,a3,a5
  86:	0086d793          	srli	a5,a3,0x8
  8a:	8edd                	or	a3,a3,a5
  8c:	0106d793          	srli	a5,a3,0x10
  90:	8edd                	or	a3,a3,a5
  92:	0206d793          	srli	a5,a3,0x20
  96:	8edd                	or	a3,a3,a5
  98:	fff6c693          	not	a3,a3
  9c:	0016d793          	srli	a5,a3,0x1
  a0:	0117f7b3          	and	a5,a5,a7
  a4:	8e9d                	sub	a3,a3,a5
  a6:	00e6f7b3          	and	a5,a3,a4
  aa:	8289                	srli	a3,a3,0x2
  ac:	8ef9                	and	a3,a3,a4
  ae:	96be                	add	a3,a3,a5
  b0:	0046d713          	srli	a4,a3,0x4
  b4:	96ba                	add	a3,a3,a4
  b6:	0056f6b3          	and	a3,a3,t0
  ba:	02c68633          	mul	a2,a3,a2
  be:	9261                	srli	a2,a2,0x38
  c0:	04060613          	addi	a2,a2,64
  c4:	a8b1                	j	120 <.LBB10_24+0x5a>

00000000000000c6 <.LBB10_24>:
  c6:	00000517          	auipc	a0,0x0
  ca:	00050513          	mv	a0,a0
  ce:	00052007          	flw	ft0,0(a0) # c6 <.LBB10_24>
  d2:	a28d                	j	234 <.LBB10_24+0x16e>
  d4:	0015d693          	srli	a3,a1,0x1
  d8:	8ecd                	or	a3,a3,a1
  da:	0026d793          	srli	a5,a3,0x2
  de:	8edd                	or	a3,a3,a5
  e0:	0046d793          	srli	a5,a3,0x4
  e4:	8edd                	or	a3,a3,a5
  e6:	0086d793          	srli	a5,a3,0x8
  ea:	8edd                	or	a3,a3,a5
  ec:	0106d793          	srli	a5,a3,0x10
  f0:	8edd                	or	a3,a3,a5
  f2:	0206d793          	srli	a5,a3,0x20
  f6:	8edd                	or	a3,a3,a5
  f8:	fff6c693          	not	a3,a3
  fc:	0016d793          	srli	a5,a3,0x1
 100:	0117f7b3          	and	a5,a5,a7
 104:	8e9d                	sub	a3,a3,a5
 106:	00e6f7b3          	and	a5,a3,a4
 10a:	8289                	srli	a3,a3,0x2
 10c:	8ef9                	and	a3,a3,a4
 10e:	96be                	add	a3,a3,a5
 110:	0046d713          	srli	a4,a3,0x4
 114:	96ba                	add	a3,a3,a4
 116:	0056f6b3          	and	a3,a3,t0
 11a:	02c68633          	mul	a2,a3,a2
 11e:	9261                	srli	a2,a2,0x38
 120:	07f00693          	li	a3,127
 124:	40c68e33          	sub	t3,a3,a2
 128:	08000713          	li	a4,128
 12c:	8f11                	sub	a4,a4,a2
 12e:	47e1                	li	a5,24
 130:	02e7f263          	bgeu	a5,a4,154 <.LBB10_24+0x8e>
 134:	02071793          	slli	a5,a4,0x20
 138:	9381                	srli	a5,a5,0x20
 13a:	46e9                	li	a3,26
 13c:	02d78963          	beq	a5,a3,16e <.LBB10_24+0xa8>
 140:	46e5                	li	a3,25
 142:	02d79863          	bne	a5,a3,172 <.LBB10_24+0xac>
 146:	0586                	slli	a1,a1,0x1
 148:	03f55613          	srli	a2,a0,0x3f
 14c:	00c5e7b3          	or	a5,a1,a2
 150:	0506                	slli	a0,a0,0x1
 152:	a849                	j	1e4 <.LBB10_24+0x11e>
 154:	01860593          	addi	a1,a2,24
 158:	07f5f613          	andi	a2,a1,127
 15c:	fc060613          	addi	a2,a2,-64
 160:	00064463          	bltz	a2,168 <.LBB10_24+0xa2>
 164:	4501                	li	a0,0
 166:	a845                	j	216 <.LBB10_24+0x150>
 168:	00b51533          	sll	a0,a0,a1
 16c:	a06d                	j	216 <.LBB10_24+0x150>
 16e:	87ae                	mv	a5,a1
 170:	a895                	j	1e4 <.LBB10_24+0x11e>
 172:	06600693          	li	a3,102
 176:	40c687b3          	sub	a5,a3,a2
 17a:	07f7f893          	andi	a7,a5,127
 17e:	03f00293          	li	t0,63
 182:	01a60393          	addi	t2,a2,26
 186:	07f3f313          	andi	t1,t2,127
 18a:	fc088613          	addi	a2,a7,-64
 18e:	02064363          	bltz	a2,1b4 <.LBB10_24+0xee>
 192:	00c5d8b3          	srl	a7,a1,a2
 196:	4781                	li	a5,0
 198:	fc030613          	addi	a2,t1,-64
 19c:	02065c63          	bgez	a2,1d4 <.LBB10_24+0x10e>
 1a0:	40628633          	sub	a2,t0,t1
 1a4:	00c85633          	srl	a2,a6,a2
 1a8:	007595b3          	sll	a1,a1,t2
 1ac:	8dd1                	or	a1,a1,a2
 1ae:	00751533          	sll	a0,a0,t2
 1b2:	a025                	j	1da <.LBB10_24+0x114>
 1b4:	41128633          	sub	a2,t0,a7
 1b8:	00159693          	slli	a3,a1,0x1
 1bc:	00c69633          	sll	a2,a3,a2
 1c0:	00f556b3          	srl	a3,a0,a5
 1c4:	00c6e8b3          	or	a7,a3,a2
 1c8:	00f5d7b3          	srl	a5,a1,a5
 1cc:	fc030613          	addi	a2,t1,-64
 1d0:	fc0648e3          	bltz	a2,1a0 <.LBB10_24+0xda>
 1d4:	00c515b3          	sll	a1,a0,a2
 1d8:	4501                	li	a0,0
 1da:	8d4d                	or	a0,a0,a1
 1dc:	00a03533          	snez	a0,a0
 1e0:	00a8e533          	or	a0,a7,a0
 1e4:	00255593          	srli	a1,a0,0x2
 1e8:	8985                	andi	a1,a1,1
 1ea:	8dc9                	or	a1,a1,a0
 1ec:	00158513          	addi	a0,a1,1
 1f0:	04000637          	lui	a2,0x4000
 1f4:	00c576b3          	and	a3,a0,a2
 1f8:	4609                	li	a2,2
 1fa:	c299                	beqz	a3,200 <.LBB10_24+0x13a>
 1fc:	460d                	li	a2,3
 1fe:	8e3a                	mv	t3,a4
 200:	00b535b3          	sltu	a1,a0,a1
 204:	95be                	add	a1,a1,a5
 206:	00c55533          	srl	a0,a0,a2
 20a:	0586                	slli	a1,a1,0x1
 20c:	03f64613          	xori	a2,a2,63
 210:	00c595b3          	sll	a1,a1,a2
 214:	8d4d                	or	a0,a0,a1
 216:	008005b7          	lui	a1,0x800
 21a:	35fd                	addiw	a1,a1,-1
 21c:	8d6d                	and	a0,a0,a1
 21e:	017e1593          	slli	a1,t3,0x17
 222:	3f800637          	lui	a2,0x3f800
 226:	95b2                	add	a1,a1,a2
 228:	7f800637          	lui	a2,0x7f800
 22c:	8df1                	and	a1,a1,a2
 22e:	8d4d                	or	a0,a0,a1
 230:	f0050053          	fmv.w.x	ft0,a0
 234:	e0000553          	fmv.x.w	a0,ft0
 238:	6402                	ld	s0,0(sp)
 23a:	60a2                	ld	ra,8(sp)
 23c:	0141                	addi	sp,sp,16
 23e:	8082                	ret

Disassembly of section .text.__floatuntidf:

0000000000000000 <__floatuntidf>:
   0:	1141                	addi	sp,sp,-16
   2:	e406                	sd	ra,8(sp)
   4:	e022                	sd	s0,0(sp)
   6:	0800                	addi	s0,sp,16
   8:	00b56633          	or	a2,a0,a1
   c:	ce4d                	beqz	a2,c6 <.LBB11_24>
   e:	00155813          	srli	a6,a0,0x1
  12:	05555637          	lui	a2,0x5555
  16:	5556061b          	addiw	a2,a2,1365
  1a:	0632                	slli	a2,a2,0xc
  1c:	55560613          	addi	a2,a2,1365 # 5555555 <.LBB0_15+0x555545f>
  20:	0632                	slli	a2,a2,0xc
  22:	55560613          	addi	a2,a2,1365
  26:	0632                	slli	a2,a2,0xc
  28:	55560893          	addi	a7,a2,1365
  2c:	03333637          	lui	a2,0x3333
  30:	3336061b          	addiw	a2,a2,819
  34:	0632                	slli	a2,a2,0xc
  36:	33360613          	addi	a2,a2,819 # 3333333 <.LBB0_15+0x333323d>
  3a:	0632                	slli	a2,a2,0xc
  3c:	33360613          	addi	a2,a2,819
  40:	0632                	slli	a2,a2,0xc
  42:	33360713          	addi	a4,a2,819
  46:	00f0f637          	lui	a2,0xf0f
  4a:	0f16061b          	addiw	a2,a2,241
  4e:	0632                	slli	a2,a2,0xc
  50:	f0f60613          	addi	a2,a2,-241 # f0ef0f <.LBB0_15+0xf0ee19>
  54:	0632                	slli	a2,a2,0xc
  56:	0f160613          	addi	a2,a2,241
  5a:	0632                	slli	a2,a2,0xc
  5c:	f0f60293          	addi	t0,a2,-241
  60:	01010637          	lui	a2,0x1010
  64:	1016061b          	addiw	a2,a2,257
  68:	0642                	slli	a2,a2,0x10
  6a:	10160613          	addi	a2,a2,257 # 1010101 <.LBB0_15+0x101000b>
  6e:	0642                	slli	a2,a2,0x10
  70:	10160613          	addi	a2,a2,257
  74:	e1a5                	bnez	a1,d4 <.LBB11_24+0xe>
  76:	010566b3          	or	a3,a0,a6
  7a:	0026d793          	srli	a5,a3,0x2
  7e:	8edd                	or	a3,a3,a5
  80:	0046d793          	srli	a5,a3,0x4
  84:	8edd                	or	a3,a3,a5
  86:	0086d793          	srli	a5,a3,0x8
  8a:	8edd                	or	a3,a3,a5
  8c:	0106d793          	srli	a5,a3,0x10
  90:	8edd                	or	a3,a3,a5
  92:	0206d793          	srli	a5,a3,0x20
  96:	8edd                	or	a3,a3,a5
  98:	fff6c693          	not	a3,a3
  9c:	0016d793          	srli	a5,a3,0x1
  a0:	0117f7b3          	and	a5,a5,a7
  a4:	8e9d                	sub	a3,a3,a5
  a6:	00e6f7b3          	and	a5,a3,a4
  aa:	8289                	srli	a3,a3,0x2
  ac:	8ef9                	and	a3,a3,a4
  ae:	96be                	add	a3,a3,a5
  b0:	0046d713          	srli	a4,a3,0x4
  b4:	96ba                	add	a3,a3,a4
  b6:	0056f6b3          	and	a3,a3,t0
  ba:	02c68633          	mul	a2,a3,a2
  be:	9261                	srli	a2,a2,0x38
  c0:	04060613          	addi	a2,a2,64
  c4:	a8b1                	j	120 <.LBB11_24+0x5a>

00000000000000c6 <.LBB11_24>:
  c6:	00000517          	auipc	a0,0x0
  ca:	00050513          	mv	a0,a0
  ce:	00053007          	fld	ft0,0(a0) # c6 <.LBB11_24>
  d2:	a2a5                	j	23a <.LBB11_24+0x174>
  d4:	0015d693          	srli	a3,a1,0x1
  d8:	8ecd                	or	a3,a3,a1
  da:	0026d793          	srli	a5,a3,0x2
  de:	8edd                	or	a3,a3,a5
  e0:	0046d793          	srli	a5,a3,0x4
  e4:	8edd                	or	a3,a3,a5
  e6:	0086d793          	srli	a5,a3,0x8
  ea:	8edd                	or	a3,a3,a5
  ec:	0106d793          	srli	a5,a3,0x10
  f0:	8edd                	or	a3,a3,a5
  f2:	0206d793          	srli	a5,a3,0x20
  f6:	8edd                	or	a3,a3,a5
  f8:	fff6c693          	not	a3,a3
  fc:	0016d793          	srli	a5,a3,0x1
 100:	0117f7b3          	and	a5,a5,a7
 104:	8e9d                	sub	a3,a3,a5
 106:	00e6f7b3          	and	a5,a3,a4
 10a:	8289                	srli	a3,a3,0x2
 10c:	8ef9                	and	a3,a3,a4
 10e:	96be                	add	a3,a3,a5
 110:	0046d713          	srli	a4,a3,0x4
 114:	96ba                	add	a3,a3,a4
 116:	0056f6b3          	and	a3,a3,t0
 11a:	02c68633          	mul	a2,a3,a2
 11e:	9261                	srli	a2,a2,0x38
 120:	07f00693          	li	a3,127
 124:	40c68e33          	sub	t3,a3,a2
 128:	08000713          	li	a4,128
 12c:	8f11                	sub	a4,a4,a2
 12e:	03500793          	li	a5,53
 132:	02e7f463          	bgeu	a5,a4,15a <.LBB11_24+0x94>
 136:	02071793          	slli	a5,a4,0x20
 13a:	9381                	srli	a5,a5,0x20
 13c:	03700693          	li	a3,55
 140:	02d78a63          	beq	a5,a3,174 <.LBB11_24+0xae>
 144:	03600693          	li	a3,54
 148:	02d79863          	bne	a5,a3,178 <.LBB11_24+0xb2>
 14c:	0586                	slli	a1,a1,0x1
 14e:	03f55613          	srli	a2,a0,0x3f
 152:	00c5e7b3          	or	a5,a1,a2
 156:	0506                	slli	a0,a0,0x1
 158:	a849                	j	1ea <.LBB11_24+0x124>
 15a:	03560593          	addi	a1,a2,53
 15e:	07f5f613          	andi	a2,a1,127
 162:	fc060613          	addi	a2,a2,-64
 166:	00064463          	bltz	a2,16e <.LBB11_24+0xa8>
 16a:	4501                	li	a0,0
 16c:	a84d                	j	21e <.LBB11_24+0x158>
 16e:	00b51533          	sll	a0,a0,a1
 172:	a075                	j	21e <.LBB11_24+0x158>
 174:	87ae                	mv	a5,a1
 176:	a895                	j	1ea <.LBB11_24+0x124>
 178:	04900693          	li	a3,73
 17c:	40c687b3          	sub	a5,a3,a2
 180:	07f7f893          	andi	a7,a5,127
 184:	03f00293          	li	t0,63
 188:	03760393          	addi	t2,a2,55
 18c:	07f3f313          	andi	t1,t2,127
 190:	fc088613          	addi	a2,a7,-64
 194:	02064363          	bltz	a2,1ba <.LBB11_24+0xf4>
 198:	00c5d8b3          	srl	a7,a1,a2
 19c:	4781                	li	a5,0
 19e:	fc030613          	addi	a2,t1,-64
 1a2:	02065c63          	bgez	a2,1da <.LBB11_24+0x114>
 1a6:	40628633          	sub	a2,t0,t1
 1aa:	00c85633          	srl	a2,a6,a2
 1ae:	007595b3          	sll	a1,a1,t2
 1b2:	8dd1                	or	a1,a1,a2
 1b4:	00751533          	sll	a0,a0,t2
 1b8:	a025                	j	1e0 <.LBB11_24+0x11a>
 1ba:	41128633          	sub	a2,t0,a7
 1be:	00159693          	slli	a3,a1,0x1
 1c2:	00c69633          	sll	a2,a3,a2
 1c6:	00f556b3          	srl	a3,a0,a5
 1ca:	00c6e8b3          	or	a7,a3,a2
 1ce:	00f5d7b3          	srl	a5,a1,a5
 1d2:	fc030613          	addi	a2,t1,-64
 1d6:	fc0648e3          	bltz	a2,1a6 <.LBB11_24+0xe0>
 1da:	00c515b3          	sll	a1,a0,a2
 1de:	4501                	li	a0,0
 1e0:	8d4d                	or	a0,a0,a1
 1e2:	00a03533          	snez	a0,a0
 1e6:	00a8e533          	or	a0,a7,a0
 1ea:	00255593          	srli	a1,a0,0x2
 1ee:	8985                	andi	a1,a1,1
 1f0:	8d4d                	or	a0,a0,a1
 1f2:	4585                	li	a1,1
 1f4:	03759613          	slli	a2,a1,0x37
 1f8:	00150593          	addi	a1,a0,1
 1fc:	00c5f6b3          	and	a3,a1,a2
 200:	4609                	li	a2,2
 202:	c299                	beqz	a3,208 <.LBB11_24+0x142>
 204:	460d                	li	a2,3
 206:	8e3a                	mv	t3,a4
 208:	00a5b533          	sltu	a0,a1,a0
 20c:	953e                	add	a0,a0,a5
 20e:	00c5d5b3          	srl	a1,a1,a2
 212:	0506                	slli	a0,a0,0x1
 214:	03f64613          	xori	a2,a2,63
 218:	00c51533          	sll	a0,a0,a2
 21c:	8d4d                	or	a0,a0,a1
 21e:	4585                	li	a1,1
 220:	15d2                	slli	a1,a1,0x34
 222:	15fd                	addi	a1,a1,-1
 224:	8d6d                	and	a0,a0,a1
 226:	7ff00593          	li	a1,2047
 22a:	15d2                	slli	a1,a1,0x34
 22c:	3ffe0613          	addi	a2,t3,1023
 230:	1652                	slli	a2,a2,0x34
 232:	8df1                	and	a1,a1,a2
 234:	8d4d                	or	a0,a0,a1
 236:	f2050053          	fmv.d.x	ft0,a0
 23a:	e2000553          	fmv.x.d	a0,ft0
 23e:	6402                	ld	s0,0(sp)
 240:	60a2                	ld	ra,8(sp)
 242:	0141                	addi	sp,sp,16
 244:	8082                	ret

Disassembly of section .text.__fixsfsi:

0000000000000000 <__fixsfsi>:
   0:	1141                	addi	sp,sp,-16
   2:	e406                	sd	ra,8(sp)
   4:	e022                	sd	s0,0(sp)
   6:	0800                	addi	s0,sp,16
   8:	01755593          	srli	a1,a0,0x17
   c:	0ff5f613          	andi	a2,a1,255
  10:	07f00593          	li	a1,127
  14:	00b67463          	bgeu	a2,a1,1c <__fixsfsi+0x1c>
  18:	4501                	li	a0,0
  1a:	a889                	j	6c <__fixsfsi+0x6c>
  1c:	0005059b          	sext.w	a1,a0
  20:	f8160693          	addi	a3,a2,-127
  24:	4779                	li	a4,30
  26:	00d77963          	bgeu	a4,a3,38 <__fixsfsi+0x38>
  2a:	80000537          	lui	a0,0x80000
  2e:	567d                	li	a2,-1
  30:	02b65e63          	bge	a2,a1,6c <__fixsfsi+0x6c>
  34:	357d                	addiw	a0,a0,-1
  36:	a81d                	j	6c <__fixsfsi+0x6c>
  38:	00800737          	lui	a4,0x800
  3c:	fff7079b          	addiw	a5,a4,-1
  40:	8d7d                	and	a0,a0,a5
  42:	8d59                	or	a0,a0,a4
  44:	475d                	li	a4,23
  46:	00e6fb63          	bgeu	a3,a4,5c <__fixsfsi+0x5c>
  4a:	46d9                	li	a3,22
  4c:	40c68633          	sub	a2,a3,a2
  50:	00c5553b          	srlw	a0,a0,a2
  54:	567d                	li	a2,-1
  56:	00b65963          	bge	a2,a1,68 <__fixsfsi+0x68>
  5a:	a809                	j	6c <__fixsfsi+0x6c>
  5c:	0629                	addi	a2,a2,10
  5e:	00c5153b          	sllw	a0,a0,a2
  62:	567d                	li	a2,-1
  64:	00b64463          	blt	a2,a1,6c <__fixsfsi+0x6c>
  68:	40a00533          	neg	a0,a0
  6c:	2501                	sext.w	a0,a0
  6e:	6402                	ld	s0,0(sp)
  70:	60a2                	ld	ra,8(sp)
  72:	0141                	addi	sp,sp,16
  74:	8082                	ret

Disassembly of section .text.__fixsfdi:

0000000000000000 <__fixsfdi>:
   0:	1141                	addi	sp,sp,-16
   2:	e406                	sd	ra,8(sp)
   4:	e022                	sd	s0,0(sp)
   6:	0800                	addi	s0,sp,16
   8:	01755593          	srli	a1,a0,0x17
   c:	0ff5f613          	andi	a2,a1,255
  10:	07f00593          	li	a1,127
  14:	00b67763          	bgeu	a2,a1,22 <__fixsfdi+0x22>
  18:	4501                	li	a0,0
  1a:	6402                	ld	s0,0(sp)
  1c:	60a2                	ld	ra,8(sp)
  1e:	0141                	addi	sp,sp,16
  20:	8082                	ret
  22:	0005059b          	sext.w	a1,a0
  26:	f8160693          	addi	a3,a2,-127
  2a:	03e00713          	li	a4,62
  2e:	00d77c63          	bgeu	a4,a3,46 <__fixsfdi+0x46>
  32:	567d                	li	a2,-1
  34:	03f61513          	slli	a0,a2,0x3f
  38:	04b65463          	bge	a2,a1,80 <__fixsfdi+0x80>
  3c:	157d                	addi	a0,a0,-1
  3e:	6402                	ld	s0,0(sp)
  40:	60a2                	ld	ra,8(sp)
  42:	0141                	addi	sp,sp,16
  44:	8082                	ret
  46:	00800737          	lui	a4,0x800
  4a:	fff7079b          	addiw	a5,a4,-1
  4e:	8d7d                	and	a0,a0,a5
  50:	8d59                	or	a0,a0,a4
  52:	475d                	li	a4,23
  54:	00e6fd63          	bgeu	a3,a4,6e <__fixsfdi+0x6e>
  58:	46d9                	li	a3,22
  5a:	40c68633          	sub	a2,a3,a2
  5e:	00c5553b          	srlw	a0,a0,a2
  62:	1502                	slli	a0,a0,0x20
  64:	9101                	srli	a0,a0,0x20
  66:	567d                	li	a2,-1
  68:	00b65a63          	bge	a2,a1,7c <__fixsfdi+0x7c>
  6c:	a811                	j	80 <__fixsfdi+0x80>
  6e:	02a60613          	addi	a2,a2,42
  72:	00c51533          	sll	a0,a0,a2
  76:	567d                	li	a2,-1
  78:	00b64463          	blt	a2,a1,80 <__fixsfdi+0x80>
  7c:	40a00533          	neg	a0,a0
  80:	6402                	ld	s0,0(sp)
  82:	60a2                	ld	ra,8(sp)
  84:	0141                	addi	sp,sp,16
  86:	8082                	ret

Disassembly of section .text.__fixsfti:

0000000000000000 <__fixsfti>:
   0:	1141                	addi	sp,sp,-16
   2:	e406                	sd	ra,8(sp)
   4:	e022                	sd	s0,0(sp)
   6:	0800                	addi	s0,sp,16
   8:	01755593          	srli	a1,a0,0x17
   c:	0ff5f593          	andi	a1,a1,255
  10:	07f00613          	li	a2,127
  14:	00c5f863          	bgeu	a1,a2,24 <__fixsfti+0x24>
  18:	4501                	li	a0,0
  1a:	4581                	li	a1,0
  1c:	6402                	ld	s0,0(sp)
  1e:	60a2                	ld	ra,8(sp)
  20:	0141                	addi	sp,sp,16
  22:	8082                	ret
  24:	0005061b          	sext.w	a2,a0
  28:	f8158693          	addi	a3,a1,-127 # 7fff81 <.LBB0_15+0x7ffe8b>
  2c:	07e00713          	li	a4,126
  30:	00d77c63          	bgeu	a4,a3,48 <__fixsfti+0x48>
  34:	557d                	li	a0,-1
  36:	03f51593          	slli	a1,a0,0x3f
  3a:	04c54763          	blt	a0,a2,88 <__fixsfti+0x88>
  3e:	4501                	li	a0,0
  40:	6402                	ld	s0,0(sp)
  42:	60a2                	ld	ra,8(sp)
  44:	0141                	addi	sp,sp,16
  46:	8082                	ret
  48:	00800737          	lui	a4,0x800
  4c:	fff7079b          	addiw	a5,a4,-1
  50:	8d7d                	and	a0,a0,a5
  52:	8d59                	or	a0,a0,a4
  54:	475d                	li	a4,23
  56:	02e6fe63          	bgeu	a3,a4,92 <__fixsfti+0x92>
  5a:	46d9                	li	a3,22
  5c:	40b685b3          	sub	a1,a3,a1
  60:	00b5553b          	srlw	a0,a0,a1
  64:	1502                	slli	a0,a0,0x20
  66:	02055693          	srli	a3,a0,0x20
  6a:	4581                	li	a1,0
  6c:	557d                	li	a0,-1
  6e:	04c54063          	blt	a0,a2,ae <__fixsfti+0xae>
  72:	40d00533          	neg	a0,a3
  76:	00d03633          	snez	a2,a3
  7a:	95b2                	add	a1,a1,a2
  7c:	40b005b3          	neg	a1,a1
  80:	6402                	ld	s0,0(sp)
  82:	60a2                	ld	ra,8(sp)
  84:	0141                	addi	sp,sp,16
  86:	8082                	ret
  88:	15fd                	addi	a1,a1,-1
  8a:	6402                	ld	s0,0(sp)
  8c:	60a2                	ld	ra,8(sp)
  8e:	0141                	addi	sp,sp,16
  90:	8082                	ret
  92:	06a58693          	addi	a3,a1,106
  96:	07f6f593          	andi	a1,a3,127
  9a:	fc058713          	addi	a4,a1,-64
  9e:	00074d63          	bltz	a4,b8 <__fixsfti+0xb8>
  a2:	00e515b3          	sll	a1,a0,a4
  a6:	4681                	li	a3,0
  a8:	557d                	li	a0,-1
  aa:	fcc554e3          	bge	a0,a2,72 <__fixsfti+0x72>
  ae:	8536                	mv	a0,a3
  b0:	6402                	ld	s0,0(sp)
  b2:	60a2                	ld	ra,8(sp)
  b4:	0141                	addi	sp,sp,16
  b6:	8082                	ret
  b8:	03f00713          	li	a4,63
  bc:	40b705b3          	sub	a1,a4,a1
  c0:	00155713          	srli	a4,a0,0x1
  c4:	00b755b3          	srl	a1,a4,a1
  c8:	00d516b3          	sll	a3,a0,a3
  cc:	557d                	li	a0,-1
  ce:	fac552e3          	bge	a0,a2,72 <__fixsfti+0x72>
  d2:	bff1                	j	ae <__fixsfti+0xae>

Disassembly of section .text.__fixdfsi:

0000000000000000 <__fixdfsi>:
   0:	1141                	addi	sp,sp,-16
   2:	e406                	sd	ra,8(sp)
   4:	e022                	sd	s0,0(sp)
   6:	0800                	addi	s0,sp,16
   8:	03455593          	srli	a1,a0,0x34
   c:	7ff5f593          	andi	a1,a1,2047
  10:	3ff00613          	li	a2,1023
  14:	00c5f463          	bgeu	a1,a2,1c <__fixdfsi+0x1c>
  18:	4581                	li	a1,0
  1a:	a83d                	j	58 <__fixdfsi+0x58>
  1c:	c0158613          	addi	a2,a1,-1023
  20:	46f9                	li	a3,30
  22:	00c6f963          	bgeu	a3,a2,34 <__fixdfsi+0x34>
  26:	800005b7          	lui	a1,0x80000
  2a:	567d                	li	a2,-1
  2c:	02a65663          	bge	a2,a0,58 <__fixdfsi+0x58>
  30:	35fd                	addiw	a1,a1,-1
  32:	a01d                	j	58 <__fixdfsi+0x58>
  34:	4605                	li	a2,1
  36:	1652                	slli	a2,a2,0x34
  38:	167d                	addi	a2,a2,-1
  3a:	00c576b3          	and	a3,a0,a2
  3e:	9636                	add	a2,a2,a3
  40:	0605                	addi	a2,a2,1
  42:	03300693          	li	a3,51
  46:	40b685b3          	sub	a1,a3,a1
  4a:	00b655b3          	srl	a1,a2,a1
  4e:	567d                	li	a2,-1
  50:	00a64463          	blt	a2,a0,58 <__fixdfsi+0x58>
  54:	40b005b3          	neg	a1,a1
  58:	0005851b          	sext.w	a0,a1
  5c:	6402                	ld	s0,0(sp)
  5e:	60a2                	ld	ra,8(sp)
  60:	0141                	addi	sp,sp,16
  62:	8082                	ret

Disassembly of section .text.__fixdfdi:

0000000000000000 <__fixdfdi>:
   0:	1141                	addi	sp,sp,-16
   2:	e406                	sd	ra,8(sp)
   4:	e022                	sd	s0,0(sp)
   6:	0800                	addi	s0,sp,16
   8:	03455593          	srli	a1,a0,0x34
   c:	7ff5f593          	andi	a1,a1,2047
  10:	3ff00613          	li	a2,1023
  14:	00c5f463          	bgeu	a1,a2,1c <__fixdfdi+0x1c>
  18:	4581                	li	a1,0
  1a:	a899                	j	70 <__fixdfdi+0x70>
  1c:	c0158613          	addi	a2,a1,-1023 # ffffffff7ffffc01 <.LBB0_15+0xffffffff7ffffb0b>
  20:	03e00693          	li	a3,62
  24:	00c6f963          	bgeu	a3,a2,36 <__fixdfdi+0x36>
  28:	567d                	li	a2,-1
  2a:	03f61593          	slli	a1,a2,0x3f
  2e:	04a65163          	bge	a2,a0,70 <__fixdfdi+0x70>
  32:	15fd                	addi	a1,a1,-1
  34:	a835                	j	70 <__fixdfdi+0x70>
  36:	4685                	li	a3,1
  38:	16d2                	slli	a3,a3,0x34
  3a:	16fd                	addi	a3,a3,-1
  3c:	00d57733          	and	a4,a0,a3
  40:	96ba                	add	a3,a3,a4
  42:	0685                	addi	a3,a3,1
  44:	03400713          	li	a4,52
  48:	00e67c63          	bgeu	a2,a4,60 <__fixdfdi+0x60>
  4c:	03300613          	li	a2,51
  50:	40b605b3          	sub	a1,a2,a1
  54:	00b6d5b3          	srl	a1,a3,a1
  58:	567d                	li	a2,-1
  5a:	00a65963          	bge	a2,a0,6c <__fixdfdi+0x6c>
  5e:	a809                	j	70 <__fixdfdi+0x70>
  60:	05b5                	addi	a1,a1,13
  62:	00b695b3          	sll	a1,a3,a1
  66:	567d                	li	a2,-1
  68:	00a64463          	blt	a2,a0,70 <__fixdfdi+0x70>
  6c:	40b005b3          	neg	a1,a1
  70:	852e                	mv	a0,a1
  72:	6402                	ld	s0,0(sp)
  74:	60a2                	ld	ra,8(sp)
  76:	0141                	addi	sp,sp,16
  78:	8082                	ret

Disassembly of section .text.__fixdfti:

0000000000000000 <__fixdfti>:
   0:	1141                	addi	sp,sp,-16
   2:	e406                	sd	ra,8(sp)
   4:	e022                	sd	s0,0(sp)
   6:	0800                	addi	s0,sp,16
   8:	03455593          	srli	a1,a0,0x34
   c:	7ff5f593          	andi	a1,a1,2047
  10:	3ff00613          	li	a2,1023
  14:	00c5f563          	bgeu	a1,a2,1e <__fixdfti+0x1e>
  18:	4601                	li	a2,0
  1a:	4581                	li	a1,0
  1c:	a829                	j	36 <__fixdfti+0x36>
  1e:	c0158693          	addi	a3,a1,-1023
  22:	07e00613          	li	a2,126
  26:	00d67d63          	bgeu	a2,a3,40 <__fixdfti+0x40>
  2a:	567d                	li	a2,-1
  2c:	03f61593          	slli	a1,a2,0x3f
  30:	02a64e63          	blt	a2,a0,6c <__fixdfti+0x6c>
  34:	4601                	li	a2,0
  36:	4501                	li	a0,0
  38:	6402                	ld	s0,0(sp)
  3a:	60a2                	ld	ra,8(sp)
  3c:	0141                	addi	sp,sp,16
  3e:	8082                	ret
  40:	4605                	li	a2,1
  42:	1652                	slli	a2,a2,0x34
  44:	167d                	addi	a2,a2,-1
  46:	00c57733          	and	a4,a0,a2
  4a:	963a                	add	a2,a2,a4
  4c:	0605                	addi	a2,a2,1
  4e:	03400713          	li	a4,52
  52:	00e6ff63          	bgeu	a3,a4,70 <__fixdfti+0x70>
  56:	03300693          	li	a3,51
  5a:	40b685b3          	sub	a1,a3,a1
  5e:	00b65633          	srl	a2,a2,a1
  62:	4581                	li	a1,0
  64:	56fd                	li	a3,-1
  66:	04a6cb63          	blt	a3,a0,bc <__fixdfti+0xbc>
  6a:	a00d                	j	8c <__fixdfti+0x8c>
  6c:	15fd                	addi	a1,a1,-1
  6e:	a0b9                	j	bc <__fixdfti+0xbc>
  70:	04d58693          	addi	a3,a1,77
  74:	07f6f593          	andi	a1,a3,127
  78:	fc058713          	addi	a4,a1,-64
  7c:	02074363          	bltz	a4,a2 <__fixdfti+0xa2>
  80:	00e615b3          	sll	a1,a2,a4
  84:	4601                	li	a2,0
  86:	56fd                	li	a3,-1
  88:	02a6ca63          	blt	a3,a0,bc <__fixdfti+0xbc>
  8c:	40c00533          	neg	a0,a2
  90:	00c03633          	snez	a2,a2
  94:	95b2                	add	a1,a1,a2
  96:	40b005b3          	neg	a1,a1
  9a:	6402                	ld	s0,0(sp)
  9c:	60a2                	ld	ra,8(sp)
  9e:	0141                	addi	sp,sp,16
  a0:	8082                	ret
  a2:	03f00713          	li	a4,63
  a6:	40b705b3          	sub	a1,a4,a1
  aa:	00165713          	srli	a4,a2,0x1
  ae:	00b755b3          	srl	a1,a4,a1
  b2:	00d61633          	sll	a2,a2,a3
  b6:	56fd                	li	a3,-1
  b8:	fca6dae3          	bge	a3,a0,8c <__fixdfti+0x8c>
  bc:	8532                	mv	a0,a2
  be:	6402                	ld	s0,0(sp)
  c0:	60a2                	ld	ra,8(sp)
  c2:	0141                	addi	sp,sp,16
  c4:	8082                	ret

Disassembly of section .text.__fixunssfsi:

0000000000000000 <__fixunssfsi>:
   0:	1141                	addi	sp,sp,-16
   2:	e406                	sd	ra,8(sp)
   4:	e022                	sd	s0,0(sp)
   6:	0800                	addi	s0,sp,16
   8:	4581                	li	a1,0
   a:	01755613          	srli	a2,a0,0x17
   e:	0ff67693          	andi	a3,a2,255
  12:	07f00613          	li	a2,127
  16:	00c6ef63          	bltu	a3,a2,34 <__fixunssfsi+0x34>
  1a:	0005061b          	sext.w	a2,a0
  1e:	00064b63          	bltz	a2,34 <__fixunssfsi+0x34>
  22:	f8168593          	addi	a1,a3,-127
  26:	477d                	li	a4,31
  28:	00b77b63          	bgeu	a4,a1,3e <__fixunssfsi+0x3e>
  2c:	41f65513          	srai	a0,a2,0x1f
  30:	fff54593          	not	a1,a0
  34:	852e                	mv	a0,a1
  36:	6402                	ld	s0,0(sp)
  38:	60a2                	ld	ra,8(sp)
  3a:	0141                	addi	sp,sp,16
  3c:	8082                	ret
  3e:	00800737          	lui	a4,0x800
  42:	fff7079b          	addiw	a5,a4,-1
  46:	8d7d                	and	a0,a0,a5
  48:	8d59                	or	a0,a0,a4
  4a:	475d                	li	a4,23
  4c:	00e5fa63          	bgeu	a1,a4,60 <__fixunssfsi+0x60>
  50:	45d9                	li	a1,22
  52:	8d95                	sub	a1,a1,a3
  54:	00b5553b          	srlw	a0,a0,a1
  58:	55fd                	li	a1,-1
  5a:	00c5da63          	bge	a1,a2,6e <__fixunssfsi+0x6e>
  5e:	a811                	j	72 <__fixunssfsi+0x72>
  60:	00a68593          	addi	a1,a3,10
  64:	00b5153b          	sllw	a0,a0,a1
  68:	55fd                	li	a1,-1
  6a:	00c5c463          	blt	a1,a2,72 <__fixunssfsi+0x72>
  6e:	40a00533          	neg	a0,a0
  72:	2501                	sext.w	a0,a0
  74:	6402                	ld	s0,0(sp)
  76:	60a2                	ld	ra,8(sp)
  78:	0141                	addi	sp,sp,16
  7a:	8082                	ret

Disassembly of section .text.__fixunssfdi:

0000000000000000 <__fixunssfdi>:
   0:	1141                	addi	sp,sp,-16
   2:	e406                	sd	ra,8(sp)
   4:	e022                	sd	s0,0(sp)
   6:	0800                	addi	s0,sp,16
   8:	4581                	li	a1,0
   a:	01755613          	srli	a2,a0,0x17
   e:	0ff67693          	andi	a3,a2,255
  12:	07f00613          	li	a2,127
  16:	02c6e063          	bltu	a3,a2,36 <__fixunssfdi+0x36>
  1a:	0005061b          	sext.w	a2,a0
  1e:	00064c63          	bltz	a2,36 <__fixunssfdi+0x36>
  22:	f8168593          	addi	a1,a3,-127
  26:	03f00713          	li	a4,63
  2a:	00b77b63          	bgeu	a4,a1,40 <__fixunssfdi+0x40>
  2e:	41f65513          	srai	a0,a2,0x1f
  32:	fff54593          	not	a1,a0
  36:	852e                	mv	a0,a1
  38:	6402                	ld	s0,0(sp)
  3a:	60a2                	ld	ra,8(sp)
  3c:	0141                	addi	sp,sp,16
  3e:	8082                	ret
  40:	00800737          	lui	a4,0x800
  44:	fff7079b          	addiw	a5,a4,-1
  48:	8d7d                	and	a0,a0,a5
  4a:	8d59                	or	a0,a0,a4
  4c:	475d                	li	a4,23
  4e:	00e5fc63          	bgeu	a1,a4,66 <__fixunssfdi+0x66>
  52:	45d9                	li	a1,22
  54:	8d95                	sub	a1,a1,a3
  56:	00b5553b          	srlw	a0,a0,a1
  5a:	1502                	slli	a0,a0,0x20
  5c:	9101                	srli	a0,a0,0x20
  5e:	55fd                	li	a1,-1
  60:	fcc5cce3          	blt	a1,a2,38 <__fixunssfdi+0x38>
  64:	a801                	j	74 <__fixunssfdi+0x74>
  66:	02a68593          	addi	a1,a3,42
  6a:	00b51533          	sll	a0,a0,a1
  6e:	55fd                	li	a1,-1
  70:	fcc5c4e3          	blt	a1,a2,38 <__fixunssfdi+0x38>
  74:	40a00533          	neg	a0,a0
  78:	6402                	ld	s0,0(sp)
  7a:	60a2                	ld	ra,8(sp)
  7c:	0141                	addi	sp,sp,16
  7e:	8082                	ret

Disassembly of section .text.__fixunssfti:

0000000000000000 <__fixunssfti>:
   0:	1141                	addi	sp,sp,-16
   2:	e406                	sd	ra,8(sp)
   4:	e022                	sd	s0,0(sp)
   6:	0800                	addi	s0,sp,16
   8:	85aa                	mv	a1,a0
   a:	4501                	li	a0,0
   c:	0175d613          	srli	a2,a1,0x17
  10:	0ff67693          	andi	a3,a2,255
  14:	07f00613          	li	a2,127
  18:	02c6e063          	bltu	a3,a2,38 <__fixunssfti+0x38>
  1c:	0005861b          	sext.w	a2,a1
  20:	00064c63          	bltz	a2,38 <__fixunssfti+0x38>
  24:	f8168713          	addi	a4,a3,-127
  28:	07f00513          	li	a0,127
  2c:	00e57b63          	bgeu	a0,a4,42 <__fixunssfti+0x42>
  30:	41f65513          	srai	a0,a2,0x1f
  34:	fff54513          	not	a0,a0
  38:	85aa                	mv	a1,a0
  3a:	6402                	ld	s0,0(sp)
  3c:	60a2                	ld	ra,8(sp)
  3e:	0141                	addi	sp,sp,16
  40:	8082                	ret
  42:	00800537          	lui	a0,0x800
  46:	fff5079b          	addiw	a5,a0,-1
  4a:	8dfd                	and	a1,a1,a5
  4c:	8d4d                	or	a0,a0,a1
  4e:	45dd                	li	a1,23
  50:	02b77863          	bgeu	a4,a1,80 <__fixunssfti+0x80>
  54:	45d9                	li	a1,22
  56:	8d95                	sub	a1,a1,a3
  58:	00b5553b          	srlw	a0,a0,a1
  5c:	1502                	slli	a0,a0,0x20
  5e:	02055693          	srli	a3,a0,0x20
  62:	4581                	li	a1,0
  64:	557d                	li	a0,-1
  66:	02c54b63          	blt	a0,a2,9c <__fixunssfti+0x9c>
  6a:	40d00533          	neg	a0,a3
  6e:	00d03633          	snez	a2,a3
  72:	95b2                	add	a1,a1,a2
  74:	40b005b3          	neg	a1,a1
  78:	6402                	ld	s0,0(sp)
  7a:	60a2                	ld	ra,8(sp)
  7c:	0141                	addi	sp,sp,16
  7e:	8082                	ret
  80:	06a68693          	addi	a3,a3,106
  84:	07f6f593          	andi	a1,a3,127
  88:	fc058713          	addi	a4,a1,-64
  8c:	00074d63          	bltz	a4,a6 <__fixunssfti+0xa6>
  90:	00e515b3          	sll	a1,a0,a4
  94:	4681                	li	a3,0
  96:	557d                	li	a0,-1
  98:	fcc559e3          	bge	a0,a2,6a <__fixunssfti+0x6a>
  9c:	8536                	mv	a0,a3
  9e:	6402                	ld	s0,0(sp)
  a0:	60a2                	ld	ra,8(sp)
  a2:	0141                	addi	sp,sp,16
  a4:	8082                	ret
  a6:	03f00713          	li	a4,63
  aa:	40b705b3          	sub	a1,a4,a1
  ae:	00155713          	srli	a4,a0,0x1
  b2:	00b755b3          	srl	a1,a4,a1
  b6:	00d516b3          	sll	a3,a0,a3
  ba:	557d                	li	a0,-1
  bc:	fac557e3          	bge	a0,a2,6a <__fixunssfti+0x6a>
  c0:	bff1                	j	9c <__fixunssfti+0x9c>

Disassembly of section .text.__fixunsdfsi:

0000000000000000 <__fixunsdfsi>:
   0:	1141                	addi	sp,sp,-16
   2:	e406                	sd	ra,8(sp)
   4:	e022                	sd	s0,0(sp)
   6:	0800                	addi	s0,sp,16
   8:	4581                	li	a1,0
   a:	03455613          	srli	a2,a0,0x34
   e:	7ff67613          	andi	a2,a2,2047
  12:	3ff00693          	li	a3,1023
  16:	00d66c63          	bltu	a2,a3,2e <__fixunsdfsi+0x2e>
  1a:	00054a63          	bltz	a0,2e <__fixunsdfsi+0x2e>
  1e:	c0160593          	addi	a1,a2,-1023
  22:	46fd                	li	a3,31
  24:	00b6fa63          	bgeu	a3,a1,38 <__fixunsdfsi+0x38>
  28:	957d                	srai	a0,a0,0x3f
  2a:	fff54593          	not	a1,a0
  2e:	852e                	mv	a0,a1
  30:	6402                	ld	s0,0(sp)
  32:	60a2                	ld	ra,8(sp)
  34:	0141                	addi	sp,sp,16
  36:	8082                	ret
  38:	4585                	li	a1,1
  3a:	15d2                	slli	a1,a1,0x34
  3c:	15fd                	addi	a1,a1,-1
  3e:	00b576b3          	and	a3,a0,a1
  42:	95b6                	add	a1,a1,a3
  44:	0585                	addi	a1,a1,1
  46:	03300693          	li	a3,51
  4a:	40c68633          	sub	a2,a3,a2
  4e:	00c5d5b3          	srl	a1,a1,a2
  52:	567d                	li	a2,-1
  54:	00a64463          	blt	a2,a0,5c <__fixunsdfsi+0x5c>
  58:	40b005b3          	neg	a1,a1
  5c:	0005851b          	sext.w	a0,a1
  60:	6402                	ld	s0,0(sp)
  62:	60a2                	ld	ra,8(sp)
  64:	0141                	addi	sp,sp,16
  66:	8082                	ret

Disassembly of section .text.__fixunsdfdi:

0000000000000000 <__fixunsdfdi>:
   0:	1141                	addi	sp,sp,-16
   2:	e406                	sd	ra,8(sp)
   4:	e022                	sd	s0,0(sp)
   6:	0800                	addi	s0,sp,16
   8:	4581                	li	a1,0
   a:	03455613          	srli	a2,a0,0x34
   e:	7ff67613          	andi	a2,a2,2047
  12:	3ff00693          	li	a3,1023
  16:	04d66b63          	bltu	a2,a3,6c <__fixunsdfdi+0x6c>
  1a:	04054963          	bltz	a0,6c <__fixunsdfdi+0x6c>
  1e:	c0160593          	addi	a1,a2,-1023
  22:	03f00693          	li	a3,63
  26:	00b6f663          	bgeu	a3,a1,32 <__fixunsdfdi+0x32>
  2a:	957d                	srai	a0,a0,0x3f
  2c:	fff54593          	not	a1,a0
  30:	a835                	j	6c <__fixunsdfdi+0x6c>
  32:	4685                	li	a3,1
  34:	16d2                	slli	a3,a3,0x34
  36:	16fd                	addi	a3,a3,-1
  38:	00d57733          	and	a4,a0,a3
  3c:	96ba                	add	a3,a3,a4
  3e:	0685                	addi	a3,a3,1
  40:	03400713          	li	a4,52
  44:	00e5fb63          	bgeu	a1,a4,5a <__fixunsdfdi+0x5a>
  48:	03300593          	li	a1,51
  4c:	8d91                	sub	a1,a1,a2
  4e:	00b6d5b3          	srl	a1,a3,a1
  52:	567d                	li	a2,-1
  54:	00a65a63          	bge	a2,a0,68 <__fixunsdfdi+0x68>
  58:	a811                	j	6c <__fixunsdfdi+0x6c>
  5a:	00d60593          	addi	a1,a2,13
  5e:	00b695b3          	sll	a1,a3,a1
  62:	567d                	li	a2,-1
  64:	00a64463          	blt	a2,a0,6c <__fixunsdfdi+0x6c>
  68:	40b005b3          	neg	a1,a1
  6c:	852e                	mv	a0,a1
  6e:	6402                	ld	s0,0(sp)
  70:	60a2                	ld	ra,8(sp)
  72:	0141                	addi	sp,sp,16
  74:	8082                	ret

Disassembly of section .text.__fixunsdfti:

0000000000000000 <__fixunsdfti>:
   0:	1141                	addi	sp,sp,-16
   2:	e406                	sd	ra,8(sp)
   4:	e022                	sd	s0,0(sp)
   6:	0800                	addi	s0,sp,16
   8:	4581                	li	a1,0
   a:	03455613          	srli	a2,a0,0x34
   e:	7ff67613          	andi	a2,a2,2047
  12:	3ff00693          	li	a3,1023
  16:	00d66d63          	bltu	a2,a3,30 <__fixunsdfti+0x30>
  1a:	00054b63          	bltz	a0,30 <__fixunsdfti+0x30>
  1e:	c0160593          	addi	a1,a2,-1023
  22:	07f00693          	li	a3,127
  26:	00b6fa63          	bgeu	a3,a1,3a <__fixunsdfti+0x3a>
  2a:	957d                	srai	a0,a0,0x3f
  2c:	fff54593          	not	a1,a0
  30:	852e                	mv	a0,a1
  32:	6402                	ld	s0,0(sp)
  34:	60a2                	ld	ra,8(sp)
  36:	0141                	addi	sp,sp,16
  38:	8082                	ret
  3a:	4685                	li	a3,1
  3c:	16d2                	slli	a3,a3,0x34
  3e:	16fd                	addi	a3,a3,-1
  40:	00d57733          	and	a4,a0,a3
  44:	96ba                	add	a3,a3,a4
  46:	0685                	addi	a3,a3,1
  48:	03400713          	li	a4,52
  4c:	02e5f663          	bgeu	a1,a4,78 <__fixunsdfti+0x78>
  50:	03300593          	li	a1,51
  54:	8d91                	sub	a1,a1,a2
  56:	00b6d633          	srl	a2,a3,a1
  5a:	4581                	li	a1,0
  5c:	56fd                	li	a3,-1
  5e:	02a6cb63          	blt	a3,a0,94 <__fixunsdfti+0x94>
  62:	40c00533          	neg	a0,a2
  66:	00c03633          	snez	a2,a2
  6a:	95b2                	add	a1,a1,a2
  6c:	40b005b3          	neg	a1,a1
  70:	6402                	ld	s0,0(sp)
  72:	60a2                	ld	ra,8(sp)
  74:	0141                	addi	sp,sp,16
  76:	8082                	ret
  78:	04d60613          	addi	a2,a2,77
  7c:	07f67593          	andi	a1,a2,127
  80:	fc058713          	addi	a4,a1,-64
  84:	00074d63          	bltz	a4,9e <__fixunsdfti+0x9e>
  88:	00e695b3          	sll	a1,a3,a4
  8c:	4601                	li	a2,0
  8e:	56fd                	li	a3,-1
  90:	fca6d9e3          	bge	a3,a0,62 <__fixunsdfti+0x62>
  94:	8532                	mv	a0,a2
  96:	6402                	ld	s0,0(sp)
  98:	60a2                	ld	ra,8(sp)
  9a:	0141                	addi	sp,sp,16
  9c:	8082                	ret
  9e:	03f00713          	li	a4,63
  a2:	40b705b3          	sub	a1,a4,a1
  a6:	0016d713          	srli	a4,a3,0x1
  aa:	00b755b3          	srl	a1,a4,a1
  ae:	00c69633          	sll	a2,a3,a2
  b2:	56fd                	li	a3,-1
  b4:	faa6d7e3          	bge	a3,a0,62 <__fixunsdfti+0x62>
  b8:	bff1                	j	94 <__fixunsdfti+0x94>

compiler_builtins-fe5d7b548202ece1.compiler_builtins.5z26s2vv-cgu.1.rcgu.o:     file format elf64-littleriscv


Disassembly of section .text.__addsf3:

0000000000000000 <__addsf3>:
   0:	1141                	addi	sp,sp,-16
   2:	e406                	sd	ra,8(sp)
   4:	e022                	sd	s0,0(sp)
   6:	0800                	addi	s0,sp,16
   8:	80000637          	lui	a2,0x80000
   c:	fff6069b          	addiw	a3,a2,-1
  10:	00d5f833          	and	a6,a1,a3
  14:	8ee9                	and	a3,a3,a0
  16:	fff68793          	addi	a5,a3,-1
  1a:	7f800737          	lui	a4,0x7f800
  1e:	ffe7061b          	addiw	a2,a4,-2
  22:	00f66c63          	bltu	a2,a5,3a <__addsf3+0x3a>
  26:	fff80613          	addi	a2,a6,-1
  2a:	fff7079b          	addiw	a5,a4,-1
  2e:	00f67663          	bgeu	a2,a5,3a <__addsf3+0x3a>
  32:	0106ea63          	bltu	a3,a6,46 <__addsf3+0x46>
  36:	88aa                	mv	a7,a0
  38:	a809                	j	4a <__addsf3+0x4a>
  3a:	0ed77563          	bgeu	a4,a3,124 <__addsf3+0x124>
  3e:	00400537          	lui	a0,0x400
  42:	8d55                	or	a0,a0,a3
  44:	ae55                	j	3f8 <.LBB0_54+0x4c>
  46:	88ae                	mv	a7,a1
  48:	85aa                	mv	a1,a0
  4a:	00800537          	lui	a0,0x800
  4e:	fff5081b          	addiw	a6,a0,-1
  52:	0108f733          	and	a4,a7,a6
  56:	0175d513          	srli	a0,a1,0x17
  5a:	0ff57793          	andi	a5,a0,255
  5e:	0178d513          	srli	a0,a7,0x17
  62:	0ff57293          	andi	t0,a0,255
  66:	0c028863          	beqz	t0,136 <__addsf3+0x136>
  6a:	0105f533          	and	a0,a1,a6
  6e:	1c079463          	bnez	a5,236 <.LBB0_53+0x34>
  72:	18050d63          	beqz	a0,20c <.LBB0_53+0xa>
  76:	00155613          	srli	a2,a0,0x1
  7a:	8e49                	or	a2,a2,a0
  7c:	00265693          	srli	a3,a2,0x2
  80:	8e55                	or	a2,a2,a3
  82:	00465693          	srli	a3,a2,0x4
  86:	8e55                	or	a2,a2,a3
  88:	00865693          	srli	a3,a2,0x8
  8c:	8e55                	or	a2,a2,a3
  8e:	01065693          	srli	a3,a2,0x10
  92:	8e55                	or	a2,a2,a3
  94:	02065693          	srli	a3,a2,0x20
  98:	8e55                	or	a2,a2,a3
  9a:	055556b7          	lui	a3,0x5555
  9e:	5556869b          	addiw	a3,a3,1365
  a2:	06b2                	slli	a3,a3,0xc
  a4:	55568693          	addi	a3,a3,1365 # 5555555 <.LBB0_54+0x55551a9>
  a8:	06b2                	slli	a3,a3,0xc
  aa:	55568693          	addi	a3,a3,1365
  ae:	06b2                	slli	a3,a3,0xc
  b0:	fff64613          	not	a2,a2
  b4:	55568693          	addi	a3,a3,1365
  b8:	00165793          	srli	a5,a2,0x1
  bc:	8efd                	and	a3,a3,a5
  be:	8e15                	sub	a2,a2,a3
  c0:	033336b7          	lui	a3,0x3333
  c4:	3336869b          	addiw	a3,a3,819
  c8:	06b2                	slli	a3,a3,0xc
  ca:	33368693          	addi	a3,a3,819 # 3333333 <.LBB0_54+0x3332f87>
  ce:	06b2                	slli	a3,a3,0xc
  d0:	33368693          	addi	a3,a3,819
  d4:	06b2                	slli	a3,a3,0xc
  d6:	33368693          	addi	a3,a3,819
  da:	00d677b3          	and	a5,a2,a3
  de:	8209                	srli	a2,a2,0x2
  e0:	8e75                	and	a2,a2,a3
  e2:	963e                	add	a2,a2,a5
  e4:	00465693          	srli	a3,a2,0x4
  e8:	9636                	add	a2,a2,a3
  ea:	00f0f6b7          	lui	a3,0xf0f
  ee:	0f16869b          	addiw	a3,a3,241
  f2:	06b2                	slli	a3,a3,0xc
  f4:	f0f68693          	addi	a3,a3,-241 # f0ef0f <.LBB0_54+0xf0eb63>
  f8:	06b2                	slli	a3,a3,0xc
  fa:	0f168693          	addi	a3,a3,241
  fe:	06b2                	slli	a3,a3,0xc
 100:	f0f68693          	addi	a3,a3,-241
 104:	8e75                	and	a2,a2,a3
 106:	010106b7          	lui	a3,0x1010
 10a:	1016869b          	addiw	a3,a3,257
 10e:	06c2                	slli	a3,a3,0x10
 110:	10168693          	addi	a3,a3,257 # 1010101 <.LBB0_54+0x100fd55>
 114:	06c2                	slli	a3,a3,0x10
 116:	10168693          	addi	a3,a3,257
 11a:	02d60633          	mul	a2,a2,a3
 11e:	9261                	srli	a2,a2,0x38
 120:	1601                	addi	a2,a2,-32
 122:	a0fd                	j	210 <.LBB0_53+0xe>
 124:	7f800737          	lui	a4,0x7f800
 128:	0b077f63          	bgeu	a4,a6,1e6 <__addsf3+0x1e6>
 12c:	00400537          	lui	a0,0x400
 130:	00a86533          	or	a0,a6,a0
 134:	a4d1                	j	3f8 <.LBB0_54+0x4c>
 136:	c765                	beqz	a4,21e <.LBB0_53+0x1c>
 138:	00175513          	srli	a0,a4,0x1
 13c:	8d59                	or	a0,a0,a4
 13e:	00255613          	srli	a2,a0,0x2
 142:	8d51                	or	a0,a0,a2
 144:	00455613          	srli	a2,a0,0x4
 148:	8d51                	or	a0,a0,a2
 14a:	00855613          	srli	a2,a0,0x8
 14e:	8d51                	or	a0,a0,a2
 150:	01055613          	srli	a2,a0,0x10
 154:	8d51                	or	a0,a0,a2
 156:	02055613          	srli	a2,a0,0x20
 15a:	8d51                	or	a0,a0,a2
 15c:	05555637          	lui	a2,0x5555
 160:	5556061b          	addiw	a2,a2,1365
 164:	0632                	slli	a2,a2,0xc
 166:	55560613          	addi	a2,a2,1365 # 5555555 <.LBB0_54+0x55551a9>
 16a:	0632                	slli	a2,a2,0xc
 16c:	55560613          	addi	a2,a2,1365
 170:	0632                	slli	a2,a2,0xc
 172:	fff54513          	not	a0,a0
 176:	55560613          	addi	a2,a2,1365
 17a:	00155693          	srli	a3,a0,0x1
 17e:	8e75                	and	a2,a2,a3
 180:	8d11                	sub	a0,a0,a2
 182:	03333637          	lui	a2,0x3333
 186:	3336061b          	addiw	a2,a2,819
 18a:	0632                	slli	a2,a2,0xc
 18c:	33360613          	addi	a2,a2,819 # 3333333 <.LBB0_54+0x3332f87>
 190:	0632                	slli	a2,a2,0xc
 192:	33360613          	addi	a2,a2,819
 196:	0632                	slli	a2,a2,0xc
 198:	33360613          	addi	a2,a2,819
 19c:	00c576b3          	and	a3,a0,a2
 1a0:	8109                	srli	a0,a0,0x2
 1a2:	8d71                	and	a0,a0,a2
 1a4:	9536                	add	a0,a0,a3
 1a6:	00455613          	srli	a2,a0,0x4
 1aa:	9532                	add	a0,a0,a2
 1ac:	00f0f637          	lui	a2,0xf0f
 1b0:	0f16061b          	addiw	a2,a2,241
 1b4:	0632                	slli	a2,a2,0xc
 1b6:	f0f60613          	addi	a2,a2,-241 # f0ef0f <.LBB0_54+0xf0eb63>
 1ba:	0632                	slli	a2,a2,0xc
 1bc:	0f160613          	addi	a2,a2,241
 1c0:	0632                	slli	a2,a2,0xc
 1c2:	f0f60613          	addi	a2,a2,-241
 1c6:	8d71                	and	a0,a0,a2
 1c8:	01010637          	lui	a2,0x1010
 1cc:	1016061b          	addiw	a2,a2,257
 1d0:	0642                	slli	a2,a2,0x10
 1d2:	10160613          	addi	a2,a2,257 # 1010101 <.LBB0_54+0x100fd55>
 1d6:	0642                	slli	a2,a2,0x10
 1d8:	10160613          	addi	a2,a2,257
 1dc:	02c50533          	mul	a0,a0,a2
 1e0:	9161                	srli	a0,a0,0x38
 1e2:	1501                	addi	a0,a0,-32
 1e4:	a83d                	j	222 <.LBB0_53+0x20>
 1e6:	f0050053          	fmv.w.x	ft0,a0
 1ea:	1ce69863          	bne	a3,a4,3ba <.LBB0_54+0xe>
 1ee:	8d2d                	xor	a0,a0,a1
 1f0:	1502                	slli	a0,a0,0x20
 1f2:	9101                	srli	a0,a0,0x20
 1f4:	4585                	li	a1,1
 1f6:	05fe                	slli	a1,a1,0x1f
 1f8:	8d2d                	xor	a0,a0,a1
 1fa:	00153513          	seqz	a0,a0
 1fe:	1e050f63          	beqz	a0,3fc <.LBB0_54+0x50>

0000000000000202 <.LBB0_53>:
 202:	00000517          	auipc	a0,0x0
 206:	00050513          	mv	a0,a0
 20a:	a26d                	j	3b4 <.LBB0_54+0x8>
 20c:	02000613          	li	a2,32
 210:	46a5                	li	a3,9
 212:	40c687b3          	sub	a5,a3,a2
 216:	0661                	addi	a2,a2,24
 218:	00c5153b          	sllw	a0,a0,a2
 21c:	a829                	j	236 <.LBB0_53+0x34>
 21e:	02000513          	li	a0,32
 222:	4625                	li	a2,9
 224:	40a602b3          	sub	t0,a2,a0
 228:	0561                	addi	a0,a0,24
 22a:	00a7173b          	sllw	a4,a4,a0
 22e:	0105f533          	and	a0,a1,a6
 232:	e40780e3          	beqz	a5,72 <__addsf3+0x72>
 236:	070e                	slli	a4,a4,0x3
 238:	00351613          	slli	a2,a0,0x3
 23c:	04000537          	lui	a0,0x4000
 240:	00a666b3          	or	a3,a2,a0
 244:	40f287b3          	sub	a5,t0,a5
 248:	4305                	li	t1,1
 24a:	0115c5b3          	xor	a1,a1,a7
 24e:	2581                	sext.w	a1,a1
 250:	c3d1                	beqz	a5,2d4 <.LBB0_53+0xd2>
 252:	43fd                	li	t2,31
 254:	4605                	li	a2,1
 256:	00f3eb63          	bltu	t2,a5,26c <.LBB0_53+0x6a>
 25a:	40f00633          	neg	a2,a5
 25e:	00f6d7bb          	srlw	a5,a3,a5
 262:	00c6963b          	sllw	a2,a3,a2
 266:	00c03633          	snez	a2,a2
 26a:	8e5d                	or	a2,a2,a5
 26c:	8d59                	or	a0,a0,a4
 26e:	0605c763          	bltz	a1,2dc <.LBB0_53+0xda>
 272:	00a605b3          	add	a1,a2,a0
 276:	08000537          	lui	a0,0x8000
 27a:	8d6d                	and	a0,a0,a1
 27c:	16050363          	beqz	a0,3e2 <.LBB0_54+0x36>
 280:	0015d51b          	srliw	a0,a1,0x1
 284:	8985                	andi	a1,a1,1
 286:	8dc9                	or	a1,a1,a0
 288:	0285                	addi	t0,t0,1
 28a:	01f31513          	slli	a0,t1,0x1f
 28e:	00a8f533          	and	a0,a7,a0
 292:	0fe00613          	li	a2,254
 296:	14564e63          	blt	a2,t0,3f2 <.LBB0_54+0x46>
 29a:	4605                	li	a2,1
 29c:	00c2de63          	bge	t0,a2,2b8 <.LBB0_53+0xb6>
 2a0:	40560633          	sub	a2,a2,t0
 2a4:	00c5d63b          	srlw	a2,a1,a2
 2a8:	fff28693          	addi	a3,t0,-1
 2ac:	00d595bb          	sllw	a1,a1,a3
 2b0:	00b035b3          	snez	a1,a1
 2b4:	8dd1                	or	a1,a1,a2
 2b6:	4281                	li	t0,0
 2b8:	0035d61b          	srliw	a2,a1,0x3
 2bc:	010676b3          	and	a3,a2,a6
 2c0:	8d55                	or	a0,a0,a3
 2c2:	01729693          	slli	a3,t0,0x17
 2c6:	8d55                	or	a0,a0,a3
 2c8:	899d                	andi	a1,a1,7
 2ca:	4695                	li	a3,5
 2cc:	0cd5e963          	bltu	a1,a3,39e <.LBB0_53+0x19c>
 2d0:	0505                	addi	a0,a0,1
 2d2:	a21d                	j	3f8 <.LBB0_54+0x4c>
 2d4:	8636                	mv	a2,a3
 2d6:	8d59                	or	a0,a0,a4
 2d8:	f805dde3          	bgez	a1,272 <.LBB0_53+0x70>
 2dc:	40c505b3          	sub	a1,a0,a2
 2e0:	02059513          	slli	a0,a1,0x20
 2e4:	9101                	srli	a0,a0,0x20
 2e6:	c179                	beqz	a0,3ac <.LBB0_54>
 2e8:	01a5d61b          	srliw	a2,a1,0x1a
 2ec:	ea7d                	bnez	a2,3e2 <.LBB0_54+0x36>
 2ee:	c17d                	beqz	a0,3d4 <.LBB0_54+0x28>
 2f0:	0015d61b          	srliw	a2,a1,0x1
 2f4:	8d51                	or	a0,a0,a2
 2f6:	00255613          	srli	a2,a0,0x2
 2fa:	8d51                	or	a0,a0,a2
 2fc:	00455613          	srli	a2,a0,0x4
 300:	8d51                	or	a0,a0,a2
 302:	00855613          	srli	a2,a0,0x8
 306:	8d51                	or	a0,a0,a2
 308:	01055613          	srli	a2,a0,0x10
 30c:	8d51                	or	a0,a0,a2
 30e:	02055613          	srli	a2,a0,0x20
 312:	8d51                	or	a0,a0,a2
 314:	05555637          	lui	a2,0x5555
 318:	5556061b          	addiw	a2,a2,1365
 31c:	0632                	slli	a2,a2,0xc
 31e:	55560613          	addi	a2,a2,1365 # 5555555 <.LBB0_54+0x55551a9>
 322:	0632                	slli	a2,a2,0xc
 324:	55560613          	addi	a2,a2,1365
 328:	0632                	slli	a2,a2,0xc
 32a:	55560613          	addi	a2,a2,1365
 32e:	fff54513          	not	a0,a0
 332:	00155693          	srli	a3,a0,0x1
 336:	8e75                	and	a2,a2,a3
 338:	8d11                	sub	a0,a0,a2
 33a:	03333637          	lui	a2,0x3333
 33e:	3336061b          	addiw	a2,a2,819
 342:	0632                	slli	a2,a2,0xc
 344:	33360613          	addi	a2,a2,819 # 3333333 <.LBB0_54+0x3332f87>
 348:	0632                	slli	a2,a2,0xc
 34a:	33360613          	addi	a2,a2,819
 34e:	0632                	slli	a2,a2,0xc
 350:	33360613          	addi	a2,a2,819
 354:	00c576b3          	and	a3,a0,a2
 358:	8109                	srli	a0,a0,0x2
 35a:	8d71                	and	a0,a0,a2
 35c:	9536                	add	a0,a0,a3
 35e:	00455613          	srli	a2,a0,0x4
 362:	9532                	add	a0,a0,a2
 364:	00f0f637          	lui	a2,0xf0f
 368:	0f16061b          	addiw	a2,a2,241
 36c:	0632                	slli	a2,a2,0xc
 36e:	f0f60613          	addi	a2,a2,-241 # f0ef0f <.LBB0_54+0xf0eb63>
 372:	0632                	slli	a2,a2,0xc
 374:	0f160613          	addi	a2,a2,241
 378:	0632                	slli	a2,a2,0xc
 37a:	f0f60613          	addi	a2,a2,-241
 37e:	8d71                	and	a0,a0,a2
 380:	01010637          	lui	a2,0x1010
 384:	1016061b          	addiw	a2,a2,257
 388:	0642                	slli	a2,a2,0x10
 38a:	10160613          	addi	a2,a2,257 # 1010101 <.LBB0_54+0x100fd55>
 38e:	0642                	slli	a2,a2,0x10
 390:	10160613          	addi	a2,a2,257
 394:	02c50533          	mul	a0,a0,a2
 398:	9161                	srli	a0,a0,0x38
 39a:	1501                	addi	a0,a0,-32
 39c:	a835                	j	3d8 <.LBB0_54+0x2c>
 39e:	4691                	li	a3,4
 3a0:	04d59c63          	bne	a1,a3,3f8 <.LBB0_54+0x4c>
 3a4:	00167593          	andi	a1,a2,1
 3a8:	952e                	add	a0,a0,a1
 3aa:	a0b9                	j	3f8 <.LBB0_54+0x4c>

00000000000003ac <.LBB0_54>:
 3ac:	00000517          	auipc	a0,0x0
 3b0:	00050513          	mv	a0,a0
 3b4:	00052007          	flw	ft0,0(a0) # 3ac <.LBB0_54>
 3b8:	a091                	j	3fc <.LBB0_54+0x50>
 3ba:	f00580d3          	fmv.w.x	ft1,a1
 3be:	7f800637          	lui	a2,0x7f800
 3c2:	00c81563          	bne	a6,a2,3cc <.LBB0_54+0x20>
 3c6:	20108053          	fmv.s	ft0,ft1
 3ca:	a80d                	j	3fc <.LBB0_54+0x50>
 3cc:	ce95                	beqz	a3,408 <.LBB0_54+0x5c>
 3ce:	c60812e3          	bnez	a6,32 <__addsf3+0x32>
 3d2:	a02d                	j	3fc <.LBB0_54+0x50>
 3d4:	02000513          	li	a0,32
 3d8:	156d                	addi	a0,a0,-5
 3da:	40a282b3          	sub	t0,t0,a0
 3de:	00a595bb          	sllw	a1,a1,a0
 3e2:	01f31513          	slli	a0,t1,0x1f
 3e6:	00a8f533          	and	a0,a7,a0
 3ea:	0fe00613          	li	a2,254
 3ee:	ea5656e3          	bge	a2,t0,29a <.LBB0_53+0x98>
 3f2:	7f8005b7          	lui	a1,0x7f800
 3f6:	8d4d                	or	a0,a0,a1
 3f8:	f0050053          	fmv.w.x	ft0,a0
 3fc:	e0000553          	fmv.x.w	a0,ft0
 400:	6402                	ld	s0,0(sp)
 402:	60a2                	ld	ra,8(sp)
 404:	0141                	addi	sp,sp,16
 406:	8082                	ret
 408:	20108053          	fmv.s	ft0,ft1
 40c:	fe0818e3          	bnez	a6,3fc <.LBB0_54+0x50>
 410:	8d6d                	and	a0,a0,a1
 412:	b7dd                	j	3f8 <.LBB0_54+0x4c>

Disassembly of section .text.__adddf3:

0000000000000000 <__adddf3>:
   0:	1141                	addi	sp,sp,-16
   2:	e406                	sd	ra,8(sp)
   4:	e022                	sd	s0,0(sp)
   6:	0800                	addi	s0,sp,16
   8:	567d                	li	a2,-1
   a:	167e                	slli	a2,a2,0x3f
   c:	fff60293          	addi	t0,a2,-1 # 7f7fffff <.LBB0_54+0x7f7ffc53>
  10:	00557733          	and	a4,a0,t0
  14:	0055f833          	and	a6,a1,t0
  18:	fff70793          	addi	a5,a4,-1 # 7f7fffff <.LBB0_54+0x7f7ffc53>
  1c:	7ff00613          	li	a2,2047
  20:	1652                	slli	a2,a2,0x34
  22:	ffe60693          	addi	a3,a2,-2
  26:	00f6ec63          	bltu	a3,a5,3e <__adddf3+0x3e>
  2a:	fff80693          	addi	a3,a6,-1
  2e:	fff60793          	addi	a5,a2,-1
  32:	00f6f663          	bgeu	a3,a5,3e <__adddf3+0x3e>
  36:	01076a63          	bltu	a4,a6,4a <__adddf3+0x4a>
  3a:	88aa                	mv	a7,a0
  3c:	a809                	j	4e <__adddf3+0x4e>
  3e:	0ee67563          	bgeu	a2,a4,128 <__adddf3+0x128>
  42:	4505                	li	a0,1
  44:	154e                	slli	a0,a0,0x33
  46:	8d59                	or	a0,a0,a4
  48:	ae45                	j	3f8 <.LBB1_54+0x50>
  4a:	88ae                	mv	a7,a1
  4c:	85aa                	mv	a1,a0
  4e:	4505                	li	a0,1
  50:	1552                	slli	a0,a0,0x34
  52:	fff50813          	addi	a6,a0,-1
  56:	0108f7b3          	and	a5,a7,a6
  5a:	0345d513          	srli	a0,a1,0x34
  5e:	7ff57513          	andi	a0,a0,2047
  62:	0348d613          	srli	a2,a7,0x34
  66:	7ff67313          	andi	t1,a2,2047
  6a:	0c030963          	beqz	t1,13c <__adddf3+0x13c>
  6e:	0105f6b3          	and	a3,a1,a6
  72:	1c051363          	bnez	a0,238 <.LBB1_53+0x36>
  76:	18068b63          	beqz	a3,20c <.LBB1_53+0xa>
  7a:	0016d513          	srli	a0,a3,0x1
  7e:	8d55                	or	a0,a0,a3
  80:	00255613          	srli	a2,a0,0x2
  84:	8d51                	or	a0,a0,a2
  86:	00455613          	srli	a2,a0,0x4
  8a:	8d51                	or	a0,a0,a2
  8c:	00855613          	srli	a2,a0,0x8
  90:	8d51                	or	a0,a0,a2
  92:	01055613          	srli	a2,a0,0x10
  96:	8d51                	or	a0,a0,a2
  98:	02055613          	srli	a2,a0,0x20
  9c:	8d51                	or	a0,a0,a2
  9e:	05555637          	lui	a2,0x5555
  a2:	5556061b          	addiw	a2,a2,1365
  a6:	0632                	slli	a2,a2,0xc
  a8:	55560613          	addi	a2,a2,1365 # 5555555 <.LBB0_54+0x55551a9>
  ac:	0632                	slli	a2,a2,0xc
  ae:	55560613          	addi	a2,a2,1365
  b2:	0632                	slli	a2,a2,0xc
  b4:	fff54513          	not	a0,a0
  b8:	55560613          	addi	a2,a2,1365
  bc:	00155713          	srli	a4,a0,0x1
  c0:	8e79                	and	a2,a2,a4
  c2:	8d11                	sub	a0,a0,a2
  c4:	03333637          	lui	a2,0x3333
  c8:	3336061b          	addiw	a2,a2,819
  cc:	0632                	slli	a2,a2,0xc
  ce:	33360613          	addi	a2,a2,819 # 3333333 <.LBB0_54+0x3332f87>
  d2:	0632                	slli	a2,a2,0xc
  d4:	33360613          	addi	a2,a2,819
  d8:	0632                	slli	a2,a2,0xc
  da:	33360613          	addi	a2,a2,819
  de:	00c57733          	and	a4,a0,a2
  e2:	8109                	srli	a0,a0,0x2
  e4:	8d71                	and	a0,a0,a2
  e6:	953a                	add	a0,a0,a4
  e8:	00455613          	srli	a2,a0,0x4
  ec:	9532                	add	a0,a0,a2
  ee:	00f0f637          	lui	a2,0xf0f
  f2:	0f16061b          	addiw	a2,a2,241
  f6:	0632                	slli	a2,a2,0xc
  f8:	f0f60613          	addi	a2,a2,-241 # f0ef0f <.LBB0_54+0xf0eb63>
  fc:	0632                	slli	a2,a2,0xc
  fe:	0f160613          	addi	a2,a2,241
 102:	0632                	slli	a2,a2,0xc
 104:	f0f60613          	addi	a2,a2,-241
 108:	8d71                	and	a0,a0,a2
 10a:	01010637          	lui	a2,0x1010
 10e:	1016061b          	addiw	a2,a2,257
 112:	0642                	slli	a2,a2,0x10
 114:	10160613          	addi	a2,a2,257 # 1010101 <.LBB0_54+0x100fd55>
 118:	0642                	slli	a2,a2,0x10
 11a:	10160613          	addi	a2,a2,257
 11e:	02c50533          	mul	a0,a0,a2
 122:	03855613          	srli	a2,a0,0x38
 126:	a0ed                	j	210 <.LBB1_53+0xe>
 128:	7ff00613          	li	a2,2047
 12c:	1652                	slli	a2,a2,0x34
 12e:	0b067e63          	bgeu	a2,a6,1ea <__adddf3+0x1ea>
 132:	4505                	li	a0,1
 134:	154e                	slli	a0,a0,0x33
 136:	00a86533          	or	a0,a6,a0
 13a:	ac7d                	j	3f8 <.LBB1_54+0x50>
 13c:	c3ed                	beqz	a5,21e <.LBB1_53+0x1c>
 13e:	0017d613          	srli	a2,a5,0x1
 142:	8e5d                	or	a2,a2,a5
 144:	00265693          	srli	a3,a2,0x2
 148:	8e55                	or	a2,a2,a3
 14a:	00465693          	srli	a3,a2,0x4
 14e:	8e55                	or	a2,a2,a3
 150:	00865693          	srli	a3,a2,0x8
 154:	8e55                	or	a2,a2,a3
 156:	01065693          	srli	a3,a2,0x10
 15a:	8e55                	or	a2,a2,a3
 15c:	02065693          	srli	a3,a2,0x20
 160:	8e55                	or	a2,a2,a3
 162:	055556b7          	lui	a3,0x5555
 166:	5556869b          	addiw	a3,a3,1365
 16a:	06b2                	slli	a3,a3,0xc
 16c:	55568693          	addi	a3,a3,1365 # 5555555 <.LBB0_54+0x55551a9>
 170:	06b2                	slli	a3,a3,0xc
 172:	55568693          	addi	a3,a3,1365
 176:	06b2                	slli	a3,a3,0xc
 178:	fff64613          	not	a2,a2
 17c:	55568693          	addi	a3,a3,1365
 180:	00165713          	srli	a4,a2,0x1
 184:	8ef9                	and	a3,a3,a4
 186:	8e15                	sub	a2,a2,a3
 188:	033336b7          	lui	a3,0x3333
 18c:	3336869b          	addiw	a3,a3,819
 190:	06b2                	slli	a3,a3,0xc
 192:	33368693          	addi	a3,a3,819 # 3333333 <.LBB0_54+0x3332f87>
 196:	06b2                	slli	a3,a3,0xc
 198:	33368693          	addi	a3,a3,819
 19c:	06b2                	slli	a3,a3,0xc
 19e:	33368693          	addi	a3,a3,819
 1a2:	00d67733          	and	a4,a2,a3
 1a6:	8209                	srli	a2,a2,0x2
 1a8:	8e75                	and	a2,a2,a3
 1aa:	963a                	add	a2,a2,a4
 1ac:	00465693          	srli	a3,a2,0x4
 1b0:	9636                	add	a2,a2,a3
 1b2:	00f0f6b7          	lui	a3,0xf0f
 1b6:	0f16869b          	addiw	a3,a3,241
 1ba:	06b2                	slli	a3,a3,0xc
 1bc:	f0f68693          	addi	a3,a3,-241 # f0ef0f <.LBB0_54+0xf0eb63>
 1c0:	06b2                	slli	a3,a3,0xc
 1c2:	0f168693          	addi	a3,a3,241
 1c6:	06b2                	slli	a3,a3,0xc
 1c8:	f0f68693          	addi	a3,a3,-241
 1cc:	8e75                	and	a2,a2,a3
 1ce:	010106b7          	lui	a3,0x1010
 1d2:	1016869b          	addiw	a3,a3,257
 1d6:	06c2                	slli	a3,a3,0x10
 1d8:	10168693          	addi	a3,a3,257 # 1010101 <.LBB0_54+0x100fd55>
 1dc:	06c2                	slli	a3,a3,0x10
 1de:	10168693          	addi	a3,a3,257
 1e2:	02d60633          	mul	a2,a2,a3
 1e6:	9261                	srli	a2,a2,0x38
 1e8:	a82d                	j	222 <.LBB1_53+0x20>
 1ea:	f2050053          	fmv.d.x	ft0,a0
 1ee:	1cc71463          	bne	a4,a2,3b6 <.LBB1_54+0xe>
 1f2:	8d2d                	xor	a0,a0,a1
 1f4:	55fd                	li	a1,-1
 1f6:	15fe                	slli	a1,a1,0x3f
 1f8:	8d2d                	xor	a0,a0,a1
 1fa:	00153513          	seqz	a0,a0
 1fe:	1e050f63          	beqz	a0,3fc <.LBB1_54+0x54>

0000000000000202 <.LBB1_53>:
 202:	00000517          	auipc	a0,0x0
 206:	00050513          	mv	a0,a0
 20a:	a25d                	j	3b0 <.LBB1_54+0x8>
 20c:	04000613          	li	a2,64
 210:	4531                	li	a0,12
 212:	8d11                	sub	a0,a0,a2
 214:	03560613          	addi	a2,a2,53
 218:	00c696b3          	sll	a3,a3,a2
 21c:	a831                	j	238 <.LBB1_53+0x36>
 21e:	04000613          	li	a2,64
 222:	46b1                	li	a3,12
 224:	40c68333          	sub	t1,a3,a2
 228:	03560613          	addi	a2,a2,53
 22c:	00c797b3          	sll	a5,a5,a2
 230:	0105f6b3          	and	a3,a1,a6
 234:	e40501e3          	beqz	a0,76 <__adddf3+0x76>
 238:	00379393          	slli	t2,a5,0x3
 23c:	4705                	li	a4,1
 23e:	03771613          	slli	a2,a4,0x37
 242:	068e                	slli	a3,a3,0x3
 244:	8ed1                	or	a3,a3,a2
 246:	0115c5b3          	xor	a1,a1,a7
 24a:	40a30533          	sub	a0,t1,a0
 24e:	c541                	beqz	a0,2d6 <.LBB1_53+0xd4>
 250:	03f00793          	li	a5,63
 254:	00a7ec63          	bltu	a5,a0,26c <.LBB1_53+0x6a>
 258:	40a00733          	neg	a4,a0
 25c:	00a6d533          	srl	a0,a3,a0
 260:	00e696b3          	sll	a3,a3,a4
 264:	00d036b3          	snez	a3,a3
 268:	00d56733          	or	a4,a0,a3
 26c:	00c3e533          	or	a0,t2,a2
 270:	0605c863          	bltz	a1,2e0 <.LBB1_53+0xde>
 274:	00a705b3          	add	a1,a4,a0
 278:	4505                	li	a0,1
 27a:	1562                	slli	a0,a0,0x38
 27c:	8d6d                	and	a0,a0,a1
 27e:	16050163          	beqz	a0,3e0 <.LBB1_54+0x38>
 282:	0015d513          	srli	a0,a1,0x1
 286:	8985                	andi	a1,a1,1
 288:	8dc9                	or	a1,a1,a0
 28a:	0305                	addi	t1,t1,1
 28c:	00128513          	addi	a0,t0,1
 290:	00a8f533          	and	a0,a7,a0
 294:	7fe00613          	li	a2,2046
 298:	14664c63          	blt	a2,t1,3f0 <.LBB1_54+0x48>
 29c:	4605                	li	a2,1
 29e:	00c35e63          	bge	t1,a2,2ba <.LBB1_53+0xb8>
 2a2:	40660633          	sub	a2,a2,t1
 2a6:	00c5d633          	srl	a2,a1,a2
 2aa:	fff30693          	addi	a3,t1,-1
 2ae:	00d595b3          	sll	a1,a1,a3
 2b2:	00b035b3          	snez	a1,a1
 2b6:	8dd1                	or	a1,a1,a2
 2b8:	4301                	li	t1,0
 2ba:	0035d613          	srli	a2,a1,0x3
 2be:	010676b3          	and	a3,a2,a6
 2c2:	8d55                	or	a0,a0,a3
 2c4:	03431693          	slli	a3,t1,0x34
 2c8:	8d55                	or	a0,a0,a3
 2ca:	899d                	andi	a1,a1,7
 2cc:	4695                	li	a3,5
 2ce:	0cd5e663          	bltu	a1,a3,39a <.LBB1_53+0x198>
 2d2:	0505                	addi	a0,a0,1
 2d4:	a215                	j	3f8 <.LBB1_54+0x50>
 2d6:	8736                	mv	a4,a3
 2d8:	00c3e533          	or	a0,t2,a2
 2dc:	f805dce3          	bgez	a1,274 <.LBB1_53+0x72>
 2e0:	40e505b3          	sub	a1,a0,a4
 2e4:	c1f1                	beqz	a1,3a8 <.LBB1_54>
 2e6:	0375d513          	srli	a0,a1,0x37
 2ea:	e97d                	bnez	a0,3e0 <.LBB1_54+0x38>
 2ec:	c1fd                	beqz	a1,3d2 <.LBB1_54+0x2a>
 2ee:	0015d513          	srli	a0,a1,0x1
 2f2:	8d4d                	or	a0,a0,a1
 2f4:	00255613          	srli	a2,a0,0x2
 2f8:	8d51                	or	a0,a0,a2
 2fa:	00455613          	srli	a2,a0,0x4
 2fe:	8d51                	or	a0,a0,a2
 300:	00855613          	srli	a2,a0,0x8
 304:	8d51                	or	a0,a0,a2
 306:	01055613          	srli	a2,a0,0x10
 30a:	8d51                	or	a0,a0,a2
 30c:	02055613          	srli	a2,a0,0x20
 310:	8d51                	or	a0,a0,a2
 312:	05555637          	lui	a2,0x5555
 316:	5556061b          	addiw	a2,a2,1365
 31a:	0632                	slli	a2,a2,0xc
 31c:	55560613          	addi	a2,a2,1365 # 5555555 <.LBB0_54+0x55551a9>
 320:	0632                	slli	a2,a2,0xc
 322:	55560613          	addi	a2,a2,1365
 326:	0632                	slli	a2,a2,0xc
 328:	fff54513          	not	a0,a0
 32c:	55560613          	addi	a2,a2,1365
 330:	00155693          	srli	a3,a0,0x1
 334:	8e75                	and	a2,a2,a3
 336:	8d11                	sub	a0,a0,a2
 338:	03333637          	lui	a2,0x3333
 33c:	3336061b          	addiw	a2,a2,819
 340:	0632                	slli	a2,a2,0xc
 342:	33360613          	addi	a2,a2,819 # 3333333 <.LBB0_54+0x3332f87>
 346:	0632                	slli	a2,a2,0xc
 348:	33360613          	addi	a2,a2,819
 34c:	0632                	slli	a2,a2,0xc
 34e:	33360613          	addi	a2,a2,819
 352:	00c576b3          	and	a3,a0,a2
 356:	8109                	srli	a0,a0,0x2
 358:	8d71                	and	a0,a0,a2
 35a:	9536                	add	a0,a0,a3
 35c:	00455613          	srli	a2,a0,0x4
 360:	9532                	add	a0,a0,a2
 362:	00f0f637          	lui	a2,0xf0f
 366:	0f16061b          	addiw	a2,a2,241
 36a:	0632                	slli	a2,a2,0xc
 36c:	f0f60613          	addi	a2,a2,-241 # f0ef0f <.LBB0_54+0xf0eb63>
 370:	0632                	slli	a2,a2,0xc
 372:	0f160613          	addi	a2,a2,241
 376:	0632                	slli	a2,a2,0xc
 378:	f0f60613          	addi	a2,a2,-241
 37c:	8d71                	and	a0,a0,a2
 37e:	01010637          	lui	a2,0x1010
 382:	1016061b          	addiw	a2,a2,257
 386:	0642                	slli	a2,a2,0x10
 388:	10160613          	addi	a2,a2,257 # 1010101 <.LBB0_54+0x100fd55>
 38c:	0642                	slli	a2,a2,0x10
 38e:	10160613          	addi	a2,a2,257
 392:	02c50533          	mul	a0,a0,a2
 396:	9161                	srli	a0,a0,0x38
 398:	a83d                	j	3d6 <.LBB1_54+0x2e>
 39a:	4691                	li	a3,4
 39c:	04d59e63          	bne	a1,a3,3f8 <.LBB1_54+0x50>
 3a0:	00167593          	andi	a1,a2,1
 3a4:	952e                	add	a0,a0,a1
 3a6:	a889                	j	3f8 <.LBB1_54+0x50>

00000000000003a8 <.LBB1_54>:
 3a8:	00000517          	auipc	a0,0x0
 3ac:	00050513          	mv	a0,a0
 3b0:	00053007          	fld	ft0,0(a0) # 3a8 <.LBB1_54>
 3b4:	a0a1                	j	3fc <.LBB1_54+0x54>
 3b6:	f20580d3          	fmv.d.x	ft1,a1
 3ba:	7ff00613          	li	a2,2047
 3be:	1652                	slli	a2,a2,0x34
 3c0:	00c81563          	bne	a6,a2,3ca <.LBB1_54+0x22>
 3c4:	22108053          	fmv.d	ft0,ft1
 3c8:	a815                	j	3fc <.LBB1_54+0x54>
 3ca:	cf1d                	beqz	a4,408 <.LBB1_54+0x60>
 3cc:	c60815e3          	bnez	a6,36 <__adddf3+0x36>
 3d0:	a035                	j	3fc <.LBB1_54+0x54>
 3d2:	04000513          	li	a0,64
 3d6:	1561                	addi	a0,a0,-8
 3d8:	40a30333          	sub	t1,t1,a0
 3dc:	00a595b3          	sll	a1,a1,a0
 3e0:	00128513          	addi	a0,t0,1
 3e4:	00a8f533          	and	a0,a7,a0
 3e8:	7fe00613          	li	a2,2046
 3ec:	ea6658e3          	bge	a2,t1,29c <.LBB1_53+0x9a>
 3f0:	7ff00593          	li	a1,2047
 3f4:	15d2                	slli	a1,a1,0x34
 3f6:	8d4d                	or	a0,a0,a1
 3f8:	f2050053          	fmv.d.x	ft0,a0
 3fc:	e2000553          	fmv.x.d	a0,ft0
 400:	6402                	ld	s0,0(sp)
 402:	60a2                	ld	ra,8(sp)
 404:	0141                	addi	sp,sp,16
 406:	8082                	ret
 408:	22108053          	fmv.d	ft0,ft1
 40c:	fe0818e3          	bnez	a6,3fc <.LBB1_54+0x54>
 410:	8d6d                	and	a0,a0,a1
 412:	b7dd                	j	3f8 <.LBB1_54+0x50>

compiler_builtins-fe5d7b548202ece1.compiler_builtins.5z26s2vv-cgu.10.rcgu.o:     file format elf64-littleriscv


Disassembly of section .text.__divsi3:

0000000000000000 <__divsi3>:
   0:	1141                	addi	sp,sp,-16
   2:	e406                	sd	ra,8(sp)
   4:	e022                	sd	s0,0(sp)
   6:	0800                	addi	s0,sp,16
   8:	41f5d613          	srai	a2,a1,0x1f
   c:	8db1                	xor	a1,a1,a2
   e:	8d91                	sub	a1,a1,a2
  10:	02059693          	slli	a3,a1,0x20
  14:	9281                	srli	a3,a3,0x20
  16:	ce91                	beqz	a3,32 <__divsi3+0x32>
  18:	41f55693          	srai	a3,a0,0x1f
  1c:	8e35                	xor	a2,a2,a3
  1e:	8d35                	xor	a0,a0,a3
  20:	8d15                	sub	a0,a0,a3
  22:	02b5553b          	divuw	a0,a0,a1
  26:	8d31                	xor	a0,a0,a2
  28:	9d11                	subw	a0,a0,a2
  2a:	6402                	ld	s0,0(sp)
  2c:	60a2                	ld	ra,8(sp)
  2e:	0141                	addi	sp,sp,16
  30:	8082                	ret
  32:	00000097          	auipc	ra,0x0
  36:	000080e7          	jalr	ra # 32 <__divsi3+0x32>
  3a:	00000097          	auipc	ra,0x0
  3e:	000080e7          	jalr	ra # 3a <__divsi3+0x3a>

Disassembly of section .text.__divdi3:

0000000000000000 <__divdi3>:
   0:	1141                	addi	sp,sp,-16
   2:	e406                	sd	ra,8(sp)
   4:	e022                	sd	s0,0(sp)
   6:	0800                	addi	s0,sp,16
   8:	43f5d613          	srai	a2,a1,0x3f
   c:	8db1                	xor	a1,a1,a2
   e:	8d91                	sub	a1,a1,a2
  10:	cd91                	beqz	a1,2c <__divdi3+0x2c>
  12:	43f55693          	srai	a3,a0,0x3f
  16:	8e35                	xor	a2,a2,a3
  18:	8d35                	xor	a0,a0,a3
  1a:	8d15                	sub	a0,a0,a3
  1c:	02b55533          	divu	a0,a0,a1
  20:	8d31                	xor	a0,a0,a2
  22:	8d11                	sub	a0,a0,a2
  24:	6402                	ld	s0,0(sp)
  26:	60a2                	ld	ra,8(sp)
  28:	0141                	addi	sp,sp,16
  2a:	8082                	ret
  2c:	00000097          	auipc	ra,0x0
  30:	000080e7          	jalr	ra # 2c <__divdi3+0x2c>
  34:	00000097          	auipc	ra,0x0
  38:	000080e7          	jalr	ra # 34 <__divdi3+0x34>

Disassembly of section .text.__divti3:

0000000000000000 <__divti3>:
   0:	1101                	addi	sp,sp,-32
   2:	ec06                	sd	ra,24(sp)
   4:	e822                	sd	s0,16(sp)
   6:	e426                	sd	s1,8(sp)
   8:	1000                	addi	s0,sp,32
   a:	43f6d713          	srai	a4,a3,0x3f
   e:	8eb9                	xor	a3,a3,a4
  10:	8e99                	sub	a3,a3,a4
  12:	8e39                	xor	a2,a2,a4
  14:	00e637b3          	sltu	a5,a2,a4
  18:	8e9d                	sub	a3,a3,a5
  1a:	8e19                	sub	a2,a2,a4
  1c:	00d667b3          	or	a5,a2,a3
  20:	cf85                	beqz	a5,58 <__divti3+0x58>
  22:	43f5d793          	srai	a5,a1,0x3f
  26:	00f744b3          	xor	s1,a4,a5
  2a:	8dbd                	xor	a1,a1,a5
  2c:	8d9d                	sub	a1,a1,a5
  2e:	8d3d                	xor	a0,a0,a5
  30:	00f53733          	sltu	a4,a0,a5
  34:	8d99                	sub	a1,a1,a4
  36:	8d1d                	sub	a0,a0,a5
  38:	00000097          	auipc	ra,0x0
  3c:	000080e7          	jalr	ra # 38 <__divti3+0x38>
  40:	8da5                	xor	a1,a1,s1
  42:	8d85                	sub	a1,a1,s1
  44:	8d25                	xor	a0,a0,s1
  46:	00953633          	sltu	a2,a0,s1
  4a:	8d91                	sub	a1,a1,a2
  4c:	8d05                	sub	a0,a0,s1
  4e:	64a2                	ld	s1,8(sp)
  50:	6442                	ld	s0,16(sp)
  52:	60e2                	ld	ra,24(sp)
  54:	6105                	addi	sp,sp,32
  56:	8082                	ret
  58:	00000097          	auipc	ra,0x0
  5c:	000080e7          	jalr	ra # 58 <__divti3+0x58>
  60:	00000097          	auipc	ra,0x0
  64:	000080e7          	jalr	ra # 60 <__divti3+0x60>

Disassembly of section .text.__modsi3:

0000000000000000 <__modsi3>:
   0:	1141                	addi	sp,sp,-16
   2:	e406                	sd	ra,8(sp)
   4:	e022                	sd	s0,0(sp)
   6:	0800                	addi	s0,sp,16
   8:	43f5d613          	srai	a2,a1,0x3f
   c:	95b2                	add	a1,a1,a2
   e:	8db1                	xor	a1,a1,a2
  10:	02059613          	slli	a2,a1,0x20
  14:	9201                	srli	a2,a2,0x20
  16:	ce09                	beqz	a2,30 <__modsi3+0x30>
  18:	41f55613          	srai	a2,a0,0x1f
  1c:	8d31                	xor	a0,a0,a2
  1e:	8d11                	sub	a0,a0,a2
  20:	02b5753b          	remuw	a0,a0,a1
  24:	8d31                	xor	a0,a0,a2
  26:	9d11                	subw	a0,a0,a2
  28:	6402                	ld	s0,0(sp)
  2a:	60a2                	ld	ra,8(sp)
  2c:	0141                	addi	sp,sp,16
  2e:	8082                	ret
  30:	00000097          	auipc	ra,0x0
  34:	000080e7          	jalr	ra # 30 <__modsi3+0x30>
  38:	00000097          	auipc	ra,0x0
  3c:	000080e7          	jalr	ra # 38 <__modsi3+0x38>

Disassembly of section .text.__moddi3:

0000000000000000 <__moddi3>:
   0:	1141                	addi	sp,sp,-16
   2:	e406                	sd	ra,8(sp)
   4:	e022                	sd	s0,0(sp)
   6:	0800                	addi	s0,sp,16
   8:	43f5d613          	srai	a2,a1,0x3f
   c:	95b2                	add	a1,a1,a2
   e:	8db1                	xor	a1,a1,a2
  10:	cd89                	beqz	a1,2a <__moddi3+0x2a>
  12:	43f55613          	srai	a2,a0,0x3f
  16:	8d31                	xor	a0,a0,a2
  18:	8d11                	sub	a0,a0,a2
  1a:	02b57533          	remu	a0,a0,a1
  1e:	8d31                	xor	a0,a0,a2
  20:	8d11                	sub	a0,a0,a2
  22:	6402                	ld	s0,0(sp)
  24:	60a2                	ld	ra,8(sp)
  26:	0141                	addi	sp,sp,16
  28:	8082                	ret
  2a:	00000097          	auipc	ra,0x0
  2e:	000080e7          	jalr	ra # 2a <__moddi3+0x2a>
  32:	00000097          	auipc	ra,0x0
  36:	000080e7          	jalr	ra # 32 <__moddi3+0x32>

Disassembly of section .text.__modti3:

0000000000000000 <__modti3>:
   0:	1101                	addi	sp,sp,-32
   2:	ec06                	sd	ra,24(sp)
   4:	e822                	sd	s0,16(sp)
   6:	e426                	sd	s1,8(sp)
   8:	1000                	addi	s0,sp,32
   a:	8732                	mv	a4,a2
   c:	0006c763          	bltz	a3,1a <__modti3+0x1a>
  10:	863a                	mv	a2,a4
  12:	00d66733          	or	a4,a2,a3
  16:	ef01                	bnez	a4,2e <__modti3+0x2e>
  18:	a0a1                	j	60 <__modti3+0x60>
  1a:	40e00633          	neg	a2,a4
  1e:	00e03733          	snez	a4,a4
  22:	96ba                	add	a3,a3,a4
  24:	40d006b3          	neg	a3,a3
  28:	00d66733          	or	a4,a2,a3
  2c:	cb15                	beqz	a4,60 <__modti3+0x60>
  2e:	43f5d493          	srai	s1,a1,0x3f
  32:	8da5                	xor	a1,a1,s1
  34:	8d85                	sub	a1,a1,s1
  36:	8d25                	xor	a0,a0,s1
  38:	00953733          	sltu	a4,a0,s1
  3c:	8d99                	sub	a1,a1,a4
  3e:	8d05                	sub	a0,a0,s1
  40:	00000097          	auipc	ra,0x0
  44:	000080e7          	jalr	ra # 40 <__modti3+0x40>
  48:	8da5                	xor	a1,a1,s1
  4a:	8d85                	sub	a1,a1,s1
  4c:	8d25                	xor	a0,a0,s1
  4e:	00953633          	sltu	a2,a0,s1
  52:	8d91                	sub	a1,a1,a2
  54:	8d05                	sub	a0,a0,s1
  56:	64a2                	ld	s1,8(sp)
  58:	6442                	ld	s0,16(sp)
  5a:	60e2                	ld	ra,24(sp)
  5c:	6105                	addi	sp,sp,32
  5e:	8082                	ret
  60:	00000097          	auipc	ra,0x0
  64:	000080e7          	jalr	ra # 60 <__modti3+0x60>
  68:	00000097          	auipc	ra,0x0
  6c:	000080e7          	jalr	ra # 68 <__modti3+0x68>

Disassembly of section .text.__divmodsi4:

0000000000000000 <__divmodsi4>:
   0:	1141                	addi	sp,sp,-16
   2:	e406                	sd	ra,8(sp)
   4:	e022                	sd	s0,0(sp)
   6:	0800                	addi	s0,sp,16
   8:	41f5d713          	srai	a4,a1,0x1f
   c:	00b746b3          	xor	a3,a4,a1
  10:	40e68833          	sub	a6,a3,a4
  14:	02081793          	slli	a5,a6,0x20
  18:	9381                	srli	a5,a5,0x20
  1a:	c795                	beqz	a5,46 <__divmodsi4+0x46>
  1c:	41f55793          	srai	a5,a0,0x1f
  20:	8f3d                	xor	a4,a4,a5
  22:	00a7c6b3          	xor	a3,a5,a0
  26:	8e9d                	sub	a3,a3,a5
  28:	0306d6bb          	divuw	a3,a3,a6
  2c:	8eb9                	xor	a3,a3,a4
  2e:	40e687b3          	sub	a5,a3,a4
  32:	02b785b3          	mul	a1,a5,a1
  36:	8d0d                	sub	a0,a0,a1
  38:	c208                	sw	a0,0(a2)
  3a:	40e6853b          	subw	a0,a3,a4
  3e:	6402                	ld	s0,0(sp)
  40:	60a2                	ld	ra,8(sp)
  42:	0141                	addi	sp,sp,16
  44:	8082                	ret
  46:	00000097          	auipc	ra,0x0
  4a:	000080e7          	jalr	ra # 46 <__divmodsi4+0x46>
  4e:	00000097          	auipc	ra,0x0
  52:	000080e7          	jalr	ra # 4e <__divmodsi4+0x4e>

Disassembly of section .text.__divmoddi4:

0000000000000000 <__divmoddi4>:
   0:	1141                	addi	sp,sp,-16
   2:	e406                	sd	ra,8(sp)
   4:	e022                	sd	s0,0(sp)
   6:	0800                	addi	s0,sp,16
   8:	43f5d713          	srai	a4,a1,0x3f
   c:	00b746b3          	xor	a3,a4,a1
  10:	40e68833          	sub	a6,a3,a4
  14:	02080563          	beqz	a6,3e <__divmoddi4+0x3e>
  18:	43f55793          	srai	a5,a0,0x3f
  1c:	8f3d                	xor	a4,a4,a5
  1e:	00a7c6b3          	xor	a3,a5,a0
  22:	8e9d                	sub	a3,a3,a5
  24:	0306d6b3          	divu	a3,a3,a6
  28:	8eb9                	xor	a3,a3,a4
  2a:	8e99                	sub	a3,a3,a4
  2c:	02b685b3          	mul	a1,a3,a1
  30:	8d0d                	sub	a0,a0,a1
  32:	e208                	sd	a0,0(a2)
  34:	8536                	mv	a0,a3
  36:	6402                	ld	s0,0(sp)
  38:	60a2                	ld	ra,8(sp)
  3a:	0141                	addi	sp,sp,16
  3c:	8082                	ret
  3e:	00000097          	auipc	ra,0x0
  42:	000080e7          	jalr	ra # 3e <__divmoddi4+0x3e>
  46:	00000097          	auipc	ra,0x0
  4a:	000080e7          	jalr	ra # 46 <__divmoddi4+0x46>

compiler_builtins-fe5d7b548202ece1.compiler_builtins.5z26s2vv-cgu.11.rcgu.o:     file format elf64-littleriscv


Disassembly of section .text.__rust_i128_add:

0000000000000000 <__rust_i128_add>:
   0:	1141                	addi	sp,sp,-16
   2:	e406                	sd	ra,8(sp)
   4:	e022                	sd	s0,0(sp)
   6:	0800                	addi	s0,sp,16
   8:	95b6                	add	a1,a1,a3
   a:	962a                	add	a2,a2,a0
   c:	00a63533          	sltu	a0,a2,a0
  10:	95aa                	add	a1,a1,a0
  12:	8532                	mv	a0,a2
  14:	6402                	ld	s0,0(sp)
  16:	60a2                	ld	ra,8(sp)
  18:	0141                	addi	sp,sp,16
  1a:	8082                	ret

Disassembly of section .text.__rust_i128_addo:

0000000000000000 <__rust_i128_addo>:
   0:	1141                	addi	sp,sp,-16
   2:	e406                	sd	ra,8(sp)
   4:	e022                	sd	s0,0(sp)
   6:	0800                	addi	s0,sp,16
   8:	96ae                	add	a3,a3,a1
   a:	00b6b5b3          	sltu	a1,a3,a1
   e:	00c707b3          	add	a5,a4,a2
  12:	97ae                	add	a5,a5,a1
  14:	00c78463          	beq	a5,a2,1c <__rust_i128_addo+0x1c>
  18:	00c7a5b3          	slt	a1,a5,a2
  1c:	e114                	sd	a3,0(a0)
  1e:	e51c                	sd	a5,8(a0)
  20:	00072613          	slti	a2,a4,0
  24:	8db1                	xor	a1,a1,a2
  26:	00b50823          	sb	a1,16(a0)
  2a:	6402                	ld	s0,0(sp)
  2c:	60a2                	ld	ra,8(sp)
  2e:	0141                	addi	sp,sp,16
  30:	8082                	ret

Disassembly of section .text.__rust_u128_addo:

0000000000000000 <__rust_u128_addo>:
   0:	1141                	addi	sp,sp,-16
   2:	e406                	sd	ra,8(sp)
   4:	e022                	sd	s0,0(sp)
   6:	0800                	addi	s0,sp,16
   8:	9732                	add	a4,a4,a2
   a:	96ae                	add	a3,a3,a1
   c:	00b6b5b3          	sltu	a1,a3,a1
  10:	972e                	add	a4,a4,a1
  12:	00c70463          	beq	a4,a2,1a <__rust_u128_addo+0x1a>
  16:	00c735b3          	sltu	a1,a4,a2
  1a:	e114                	sd	a3,0(a0)
  1c:	e518                	sd	a4,8(a0)
  1e:	00b50823          	sb	a1,16(a0)
  22:	6402                	ld	s0,0(sp)
  24:	60a2                	ld	ra,8(sp)
  26:	0141                	addi	sp,sp,16
  28:	8082                	ret

Disassembly of section .text.__rust_i128_sub:

0000000000000000 <__rust_i128_sub>:
   0:	1141                	addi	sp,sp,-16
   2:	e406                	sd	ra,8(sp)
   4:	e022                	sd	s0,0(sp)
   6:	0800                	addi	s0,sp,16
   8:	fff6c693          	not	a3,a3
   c:	95b6                	add	a1,a1,a3
   e:	00163693          	seqz	a3,a2
  12:	95b6                	add	a1,a1,a3
  14:	40c50633          	sub	a2,a0,a2
  18:	00a63533          	sltu	a0,a2,a0
  1c:	95aa                	add	a1,a1,a0
  1e:	8532                	mv	a0,a2
  20:	6402                	ld	s0,0(sp)
  22:	60a2                	ld	ra,8(sp)
  24:	0141                	addi	sp,sp,16
  26:	8082                	ret

Disassembly of section .text.__rust_i128_subo:

0000000000000000 <__rust_i128_subo>:
   0:	1141                	addi	sp,sp,-16
   2:	e406                	sd	ra,8(sp)
   4:	e022                	sd	s0,0(sp)
   6:	0800                	addi	s0,sp,16
   8:	fff74793          	not	a5,a4
   c:	00c78833          	add	a6,a5,a2
  10:	0016b793          	seqz	a5,a3
  14:	983e                	add	a6,a6,a5
  16:	40d586b3          	sub	a3,a1,a3
  1a:	00b6b7b3          	sltu	a5,a3,a1
  1e:	97c2                	add	a5,a5,a6
  20:	00c78563          	beq	a5,a2,2a <__rust_i128_subo+0x2a>
  24:	00f625b3          	slt	a1,a2,a5
  28:	a019                	j	2e <__rust_i128_subo+0x2e>
  2a:	00d5b5b3          	sltu	a1,a1,a3
  2e:	e114                	sd	a3,0(a0)
  30:	e51c                	sd	a5,8(a0)
  32:	00072613          	slti	a2,a4,0
  36:	8db1                	xor	a1,a1,a2
  38:	00b50823          	sb	a1,16(a0)
  3c:	6402                	ld	s0,0(sp)
  3e:	60a2                	ld	ra,8(sp)
  40:	0141                	addi	sp,sp,16
  42:	8082                	ret

Disassembly of section .text.__rust_u128_subo:

0000000000000000 <__rust_u128_subo>:
   0:	1141                	addi	sp,sp,-16
   2:	e406                	sd	ra,8(sp)
   4:	e022                	sd	s0,0(sp)
   6:	0800                	addi	s0,sp,16
   8:	fff74713          	not	a4,a4
   c:	9732                	add	a4,a4,a2
   e:	0016b793          	seqz	a5,a3
  12:	973e                	add	a4,a4,a5
  14:	40d586b3          	sub	a3,a1,a3
  18:	00b6b7b3          	sltu	a5,a3,a1
  1c:	973e                	add	a4,a4,a5
  1e:	00c70563          	beq	a4,a2,28 <__rust_u128_subo+0x28>
  22:	00e635b3          	sltu	a1,a2,a4
  26:	a019                	j	2c <__rust_u128_subo+0x2c>
  28:	00d5b5b3          	sltu	a1,a1,a3
  2c:	e114                	sd	a3,0(a0)
  2e:	e518                	sd	a4,8(a0)
  30:	00b50823          	sb	a1,16(a0)
  34:	6402                	ld	s0,0(sp)
  36:	60a2                	ld	ra,8(sp)
  38:	0141                	addi	sp,sp,16
  3a:	8082                	ret

compiler_builtins-fe5d7b548202ece1.compiler_builtins.5z26s2vv-cgu.12.rcgu.o:     file format elf64-littleriscv


Disassembly of section .text.__extendsfdf2:

0000000000000000 <__extendsfdf2>:
   0:	1141                	addi	sp,sp,-16
   2:	e406                	sd	ra,8(sp)
   4:	e022                	sd	s0,0(sp)
   6:	0800                	addi	s0,sp,16
   8:	800005b7          	lui	a1,0x80000
   c:	35fd                	addiw	a1,a1,-1
   e:	8de9                	and	a1,a1,a0
  10:	ff800637          	lui	a2,0xff800
  14:	962e                	add	a2,a2,a1
  16:	0186561b          	srliw	a2,a2,0x18
  1a:	07f00693          	li	a3,127
  1e:	00d67763          	bgeu	a2,a3,2c <__extendsfdf2+0x2c>
  22:	461d                	li	a2,7
  24:	166e                	slli	a2,a2,0x3b
  26:	05f6                	slli	a1,a1,0x1d
  28:	95b2                	add	a1,a1,a2
  2a:	a8cd                	j	11c <__extendsfdf2+0x11c>
  2c:	0175d613          	srli	a2,a1,0x17
  30:	0fe00693          	li	a3,254
  34:	00c6fa63          	bgeu	a3,a2,48 <__extendsfdf2+0x48>
  38:	008005b7          	lui	a1,0x800
  3c:	35fd                	addiw	a1,a1,-1
  3e:	8de9                	and	a1,a1,a0
  40:	05f6                	slli	a1,a1,0x1d
  42:	7ff00613          	li	a2,2047
  46:	a8c9                	j	118 <__extendsfdf2+0x118>
  48:	c9cd                	beqz	a1,fa <__extendsfdf2+0xfa>
  4a:	c9d5                	beqz	a1,fe <__extendsfdf2+0xfe>
  4c:	0015d613          	srli	a2,a1,0x1
  50:	8e4d                	or	a2,a2,a1
  52:	00265693          	srli	a3,a2,0x2
  56:	8e55                	or	a2,a2,a3
  58:	00465693          	srli	a3,a2,0x4
  5c:	8e55                	or	a2,a2,a3
  5e:	00865693          	srli	a3,a2,0x8
  62:	8e55                	or	a2,a2,a3
  64:	01065693          	srli	a3,a2,0x10
  68:	8e55                	or	a2,a2,a3
  6a:	02065693          	srli	a3,a2,0x20
  6e:	8e55                	or	a2,a2,a3
  70:	055556b7          	lui	a3,0x5555
  74:	5556869b          	addiw	a3,a3,1365
  78:	06b2                	slli	a3,a3,0xc
  7a:	55568693          	addi	a3,a3,1365 # 5555555 <__extendsfdf2+0x5555555>
  7e:	06b2                	slli	a3,a3,0xc
  80:	55568693          	addi	a3,a3,1365
  84:	06b2                	slli	a3,a3,0xc
  86:	fff64613          	not	a2,a2
  8a:	55568693          	addi	a3,a3,1365
  8e:	00165713          	srli	a4,a2,0x1
  92:	8ef9                	and	a3,a3,a4
  94:	8e15                	sub	a2,a2,a3
  96:	033336b7          	lui	a3,0x3333
  9a:	3336869b          	addiw	a3,a3,819
  9e:	06b2                	slli	a3,a3,0xc
  a0:	33368693          	addi	a3,a3,819 # 3333333 <__extendsfdf2+0x3333333>
  a4:	06b2                	slli	a3,a3,0xc
  a6:	33368693          	addi	a3,a3,819
  aa:	06b2                	slli	a3,a3,0xc
  ac:	33368693          	addi	a3,a3,819
  b0:	00d67733          	and	a4,a2,a3
  b4:	8209                	srli	a2,a2,0x2
  b6:	8e75                	and	a2,a2,a3
  b8:	963a                	add	a2,a2,a4
  ba:	00465693          	srli	a3,a2,0x4
  be:	9636                	add	a2,a2,a3
  c0:	00f0f6b7          	lui	a3,0xf0f
  c4:	0f16869b          	addiw	a3,a3,241
  c8:	06b2                	slli	a3,a3,0xc
  ca:	f0f68693          	addi	a3,a3,-241 # f0ef0f <__extendsfdf2+0xf0ef0f>
  ce:	06b2                	slli	a3,a3,0xc
  d0:	0f168693          	addi	a3,a3,241
  d4:	06b2                	slli	a3,a3,0xc
  d6:	f0f68693          	addi	a3,a3,-241
  da:	8e75                	and	a2,a2,a3
  dc:	010106b7          	lui	a3,0x1010
  e0:	1016869b          	addiw	a3,a3,257
  e4:	06c2                	slli	a3,a3,0x10
  e6:	10168693          	addi	a3,a3,257 # 1010101 <__extendsfdf2+0x1010101>
  ea:	06c2                	slli	a3,a3,0x10
  ec:	10168693          	addi	a3,a3,257
  f0:	02d60633          	mul	a2,a2,a3
  f4:	9261                	srli	a2,a2,0x38
  f6:	1601                	addi	a2,a2,-32
  f8:	a029                	j	102 <__extendsfdf2+0x102>
  fa:	4581                	li	a1,0
  fc:	a005                	j	11c <__extendsfdf2+0x11c>
  fe:	02000613          	li	a2,32
 102:	01560693          	addi	a3,a2,21 # ffffffffff800015 <__extendsfdf2+0xffffffffff800015>
 106:	00d595b3          	sll	a1,a1,a3
 10a:	4685                	li	a3,1
 10c:	16d2                	slli	a3,a3,0x34
 10e:	8db5                	xor	a1,a1,a3
 110:	38900693          	li	a3,905
 114:	40c68633          	sub	a2,a3,a2
 118:	1652                	slli	a2,a2,0x34
 11a:	8dd1                	or	a1,a1,a2
 11c:	4605                	li	a2,1
 11e:	067e                	slli	a2,a2,0x1f
 120:	8d71                	and	a0,a0,a2
 122:	1502                	slli	a0,a0,0x20
 124:	8d4d                	or	a0,a0,a1
 126:	6402                	ld	s0,0(sp)
 128:	60a2                	ld	ra,8(sp)
 12a:	0141                	addi	sp,sp,16
 12c:	8082                	ret

compiler_builtins-fe5d7b548202ece1.compiler_builtins.5z26s2vv-cgu.13.rcgu.o:     file format elf64-littleriscv


Disassembly of section .text._ZN55_$LT$f32$u20$as$u20$compiler_builtins..float..Float$GT$11signed_repr17hf547a3577069cd2aE:

0000000000000000 <_ZN55_$LT$f32$u20$as$u20$compiler_builtins..float..Float$GT$11signed_repr17hf547a3577069cd2aE>:
   0:	1141                	addi	sp,sp,-16
   2:	e406                	sd	ra,8(sp)
   4:	e022                	sd	s0,0(sp)
   6:	0800                	addi	s0,sp,16
   8:	6402                	ld	s0,0(sp)
   a:	60a2                	ld	ra,8(sp)
   c:	0141                	addi	sp,sp,16
   e:	8082                	ret

Disassembly of section .text._ZN55_$LT$f32$u20$as$u20$compiler_builtins..float..Float$GT$9from_repr17hc1da4ded50411000E:

0000000000000000 <_ZN55_$LT$f32$u20$as$u20$compiler_builtins..float..Float$GT$9from_repr17hc1da4ded50411000E>:
   0:	1141                	addi	sp,sp,-16
   2:	e406                	sd	ra,8(sp)
   4:	e022                	sd	s0,0(sp)
   6:	0800                	addi	s0,sp,16
   8:	6402                	ld	s0,0(sp)
   a:	60a2                	ld	ra,8(sp)
   c:	0141                	addi	sp,sp,16
   e:	8082                	ret

Disassembly of section .text._ZN55_$LT$f32$u20$as$u20$compiler_builtins..float..Float$GT$10from_parts17h3db19f0ec5c76fc4E:

0000000000000000 <_ZN55_$LT$f32$u20$as$u20$compiler_builtins..float..Float$GT$10from_parts17h3db19f0ec5c76fc4E>:
   0:	1141                	addi	sp,sp,-16
   2:	e406                	sd	ra,8(sp)
   4:	e022                	sd	s0,0(sp)
   6:	0800                	addi	s0,sp,16
   8:	008006b7          	lui	a3,0x800
   c:	36fd                	addiw	a3,a3,-1
   e:	8e75                	and	a2,a2,a3
  10:	05de                	slli	a1,a1,0x17
  12:	7f8006b7          	lui	a3,0x7f800
  16:	8df5                	and	a1,a1,a3
  18:	057e                	slli	a0,a0,0x1f
  1a:	8d4d                	or	a0,a0,a1
  1c:	8d51                	or	a0,a0,a2
  1e:	6402                	ld	s0,0(sp)
  20:	60a2                	ld	ra,8(sp)
  22:	0141                	addi	sp,sp,16
  24:	8082                	ret

Disassembly of section .text._ZN55_$LT$f32$u20$as$u20$compiler_builtins..float..Float$GT$9normalize17h327e674b023c5fd9E:

0000000000000000 <_ZN55_$LT$f32$u20$as$u20$compiler_builtins..float..Float$GT$9normalize17h327e674b023c5fd9E>:
   0:	1141                	addi	sp,sp,-16
   2:	e406                	sd	ra,8(sp)
   4:	e022                	sd	s0,0(sp)
   6:	0800                	addi	s0,sp,16
   8:	02051593          	slli	a1,a0,0x20
   c:	9181                	srli	a1,a1,0x20
   e:	c9c5                	beqz	a1,be <_ZN55_$LT$f32$u20$as$u20$compiler_builtins..float..Float$GT$9normalize17h327e674b023c5fd9E+0xbe>
  10:	0015561b          	srliw	a2,a0,0x1
  14:	8dd1                	or	a1,a1,a2
  16:	0025d613          	srli	a2,a1,0x2
  1a:	8dd1                	or	a1,a1,a2
  1c:	0045d613          	srli	a2,a1,0x4
  20:	8dd1                	or	a1,a1,a2
  22:	0085d613          	srli	a2,a1,0x8
  26:	8dd1                	or	a1,a1,a2
  28:	0105d613          	srli	a2,a1,0x10
  2c:	8dd1                	or	a1,a1,a2
  2e:	0205d613          	srli	a2,a1,0x20
  32:	8dd1                	or	a1,a1,a2
  34:	05555637          	lui	a2,0x5555
  38:	5556061b          	addiw	a2,a2,1365
  3c:	0632                	slli	a2,a2,0xc
  3e:	55560613          	addi	a2,a2,1365 # 5555555 <_ZN55_$LT$f32$u20$as$u20$compiler_builtins..float..Float$GT$9normalize17h327e674b023c5fd9E+0x5555555>
  42:	0632                	slli	a2,a2,0xc
  44:	55560613          	addi	a2,a2,1365
  48:	0632                	slli	a2,a2,0xc
  4a:	55560613          	addi	a2,a2,1365
  4e:	fff5c593          	not	a1,a1
  52:	0015d693          	srli	a3,a1,0x1
  56:	8e75                	and	a2,a2,a3
  58:	8d91                	sub	a1,a1,a2
  5a:	03333637          	lui	a2,0x3333
  5e:	3336061b          	addiw	a2,a2,819
  62:	0632                	slli	a2,a2,0xc
  64:	33360613          	addi	a2,a2,819 # 3333333 <_ZN55_$LT$f32$u20$as$u20$compiler_builtins..float..Float$GT$9normalize17h327e674b023c5fd9E+0x3333333>
  68:	0632                	slli	a2,a2,0xc
  6a:	33360613          	addi	a2,a2,819
  6e:	0632                	slli	a2,a2,0xc
  70:	33360613          	addi	a2,a2,819
  74:	00c5f6b3          	and	a3,a1,a2
  78:	8189                	srli	a1,a1,0x2
  7a:	8df1                	and	a1,a1,a2
  7c:	95b6                	add	a1,a1,a3
  7e:	0045d613          	srli	a2,a1,0x4
  82:	95b2                	add	a1,a1,a2
  84:	00f0f637          	lui	a2,0xf0f
  88:	0f16061b          	addiw	a2,a2,241
  8c:	0632                	slli	a2,a2,0xc
  8e:	f0f60613          	addi	a2,a2,-241 # f0ef0f <_ZN55_$LT$f32$u20$as$u20$compiler_builtins..float..Float$GT$9normalize17h327e674b023c5fd9E+0xf0ef0f>
  92:	0632                	slli	a2,a2,0xc
  94:	0f160613          	addi	a2,a2,241
  98:	0632                	slli	a2,a2,0xc
  9a:	f0f60613          	addi	a2,a2,-241
  9e:	8df1                	and	a1,a1,a2
  a0:	01010637          	lui	a2,0x1010
  a4:	1016061b          	addiw	a2,a2,257
  a8:	0642                	slli	a2,a2,0x10
  aa:	10160613          	addi	a2,a2,257 # 1010101 <_ZN55_$LT$f32$u20$as$u20$compiler_builtins..float..Float$GT$9normalize17h327e674b023c5fd9E+0x1010101>
  ae:	0642                	slli	a2,a2,0x10
  b0:	10160613          	addi	a2,a2,257
  b4:	02c585b3          	mul	a1,a1,a2
  b8:	91e1                	srli	a1,a1,0x38
  ba:	1581                	addi	a1,a1,-32
  bc:	a019                	j	c2 <_ZN55_$LT$f32$u20$as$u20$compiler_builtins..float..Float$GT$9normalize17h327e674b023c5fd9E+0xc2>
  be:	02000593          	li	a1,32
  c2:	4625                	li	a2,9
  c4:	8e0d                	sub	a2,a2,a1
  c6:	05e1                	addi	a1,a1,24
  c8:	00b515bb          	sllw	a1,a0,a1
  cc:	8532                	mv	a0,a2
  ce:	6402                	ld	s0,0(sp)
  d0:	60a2                	ld	ra,8(sp)
  d2:	0141                	addi	sp,sp,16
  d4:	8082                	ret

Disassembly of section .text._ZN55_$LT$f64$u20$as$u20$compiler_builtins..float..Float$GT$11signed_repr17h8e140b96f9770e8fE:

0000000000000000 <_ZN55_$LT$f64$u20$as$u20$compiler_builtins..float..Float$GT$11signed_repr17h8e140b96f9770e8fE>:
   0:	1141                	addi	sp,sp,-16
   2:	e406                	sd	ra,8(sp)
   4:	e022                	sd	s0,0(sp)
   6:	0800                	addi	s0,sp,16
   8:	6402                	ld	s0,0(sp)
   a:	60a2                	ld	ra,8(sp)
   c:	0141                	addi	sp,sp,16
   e:	8082                	ret

Disassembly of section .text._ZN55_$LT$f64$u20$as$u20$compiler_builtins..float..Float$GT$9from_repr17ha9901a61e25dfdc1E:

0000000000000000 <_ZN55_$LT$f64$u20$as$u20$compiler_builtins..float..Float$GT$9from_repr17ha9901a61e25dfdc1E>:
   0:	1141                	addi	sp,sp,-16
   2:	e406                	sd	ra,8(sp)
   4:	e022                	sd	s0,0(sp)
   6:	0800                	addi	s0,sp,16
   8:	6402                	ld	s0,0(sp)
   a:	60a2                	ld	ra,8(sp)
   c:	0141                	addi	sp,sp,16
   e:	8082                	ret

Disassembly of section .text._ZN55_$LT$f64$u20$as$u20$compiler_builtins..float..Float$GT$10from_parts17hd16c38b4c104f4c5E:

0000000000000000 <_ZN55_$LT$f64$u20$as$u20$compiler_builtins..float..Float$GT$10from_parts17hd16c38b4c104f4c5E>:
   0:	1141                	addi	sp,sp,-16
   2:	e406                	sd	ra,8(sp)
   4:	e022                	sd	s0,0(sp)
   6:	0800                	addi	s0,sp,16
   8:	4685                	li	a3,1
   a:	16d2                	slli	a3,a3,0x34
   c:	16fd                	addi	a3,a3,-1
   e:	8e75                	and	a2,a2,a3
  10:	7ff00693          	li	a3,2047
  14:	16d2                	slli	a3,a3,0x34
  16:	15d2                	slli	a1,a1,0x34
  18:	8df5                	and	a1,a1,a3
  1a:	157e                	slli	a0,a0,0x3f
  1c:	8d4d                	or	a0,a0,a1
  1e:	8d51                	or	a0,a0,a2
  20:	6402                	ld	s0,0(sp)
  22:	60a2                	ld	ra,8(sp)
  24:	0141                	addi	sp,sp,16
  26:	8082                	ret

Disassembly of section .text._ZN55_$LT$f64$u20$as$u20$compiler_builtins..float..Float$GT$9normalize17hdc15e73929f68554E:

0000000000000000 <_ZN55_$LT$f64$u20$as$u20$compiler_builtins..float..Float$GT$9normalize17hdc15e73929f68554E>:
   0:	1141                	addi	sp,sp,-16
   2:	e406                	sd	ra,8(sp)
   4:	e022                	sd	s0,0(sp)
   6:	0800                	addi	s0,sp,16
   8:	c55d                	beqz	a0,b6 <_ZN55_$LT$f64$u20$as$u20$compiler_builtins..float..Float$GT$9normalize17hdc15e73929f68554E+0xb6>
   a:	00155593          	srli	a1,a0,0x1
   e:	8dc9                	or	a1,a1,a0
  10:	0025d613          	srli	a2,a1,0x2
  14:	8dd1                	or	a1,a1,a2
  16:	0045d613          	srli	a2,a1,0x4
  1a:	8dd1                	or	a1,a1,a2
  1c:	0085d613          	srli	a2,a1,0x8
  20:	8dd1                	or	a1,a1,a2
  22:	0105d613          	srli	a2,a1,0x10
  26:	8dd1                	or	a1,a1,a2
  28:	0205d613          	srli	a2,a1,0x20
  2c:	8dd1                	or	a1,a1,a2
  2e:	05555637          	lui	a2,0x5555
  32:	5556061b          	addiw	a2,a2,1365
  36:	0632                	slli	a2,a2,0xc
  38:	55560613          	addi	a2,a2,1365 # 5555555 <_ZN55_$LT$f64$u20$as$u20$compiler_builtins..float..Float$GT$9normalize17hdc15e73929f68554E+0x5555555>
  3c:	0632                	slli	a2,a2,0xc
  3e:	55560613          	addi	a2,a2,1365
  42:	0632                	slli	a2,a2,0xc
  44:	fff5c593          	not	a1,a1
  48:	55560613          	addi	a2,a2,1365
  4c:	0015d693          	srli	a3,a1,0x1
  50:	8e75                	and	a2,a2,a3
  52:	8d91                	sub	a1,a1,a2
  54:	03333637          	lui	a2,0x3333
  58:	3336061b          	addiw	a2,a2,819
  5c:	0632                	slli	a2,a2,0xc
  5e:	33360613          	addi	a2,a2,819 # 3333333 <_ZN55_$LT$f64$u20$as$u20$compiler_builtins..float..Float$GT$9normalize17hdc15e73929f68554E+0x3333333>
  62:	0632                	slli	a2,a2,0xc
  64:	33360613          	addi	a2,a2,819
  68:	0632                	slli	a2,a2,0xc
  6a:	33360613          	addi	a2,a2,819
  6e:	00c5f6b3          	and	a3,a1,a2
  72:	8189                	srli	a1,a1,0x2
  74:	8df1                	and	a1,a1,a2
  76:	95b6                	add	a1,a1,a3
  78:	0045d613          	srli	a2,a1,0x4
  7c:	95b2                	add	a1,a1,a2
  7e:	00f0f637          	lui	a2,0xf0f
  82:	0f16061b          	addiw	a2,a2,241
  86:	0632                	slli	a2,a2,0xc
  88:	f0f60613          	addi	a2,a2,-241 # f0ef0f <_ZN55_$LT$f64$u20$as$u20$compiler_builtins..float..Float$GT$9normalize17hdc15e73929f68554E+0xf0ef0f>
  8c:	0632                	slli	a2,a2,0xc
  8e:	0f160613          	addi	a2,a2,241
  92:	0632                	slli	a2,a2,0xc
  94:	f0f60613          	addi	a2,a2,-241
  98:	8df1                	and	a1,a1,a2
  9a:	01010637          	lui	a2,0x1010
  9e:	1016061b          	addiw	a2,a2,257
  a2:	0642                	slli	a2,a2,0x10
  a4:	10160613          	addi	a2,a2,257 # 1010101 <_ZN55_$LT$f64$u20$as$u20$compiler_builtins..float..Float$GT$9normalize17hdc15e73929f68554E+0x1010101>
  a8:	0642                	slli	a2,a2,0x10
  aa:	10160613          	addi	a2,a2,257
  ae:	02c585b3          	mul	a1,a1,a2
  b2:	91e1                	srli	a1,a1,0x38
  b4:	a019                	j	ba <_ZN55_$LT$f64$u20$as$u20$compiler_builtins..float..Float$GT$9normalize17hdc15e73929f68554E+0xba>
  b6:	04000593          	li	a1,64
  ba:	4631                	li	a2,12
  bc:	8e0d                	sub	a2,a2,a1
  be:	03558593          	addi	a1,a1,53
  c2:	00b515b3          	sll	a1,a0,a1
  c6:	8532                	mv	a0,a2
  c8:	6402                	ld	s0,0(sp)
  ca:	60a2                	ld	ra,8(sp)
  cc:	0141                	addi	sp,sp,16
  ce:	8082                	ret

compiler_builtins-fe5d7b548202ece1.compiler_builtins.5z26s2vv-cgu.14.rcgu.o:     file format elf64-littleriscv


Disassembly of section .text.__powisf2:

0000000000000000 <__powisf2>:
   0:	1141                	addi	sp,sp,-16
   2:	e406                	sd	ra,8(sp)
   4:	e022                	sd	s0,0(sp)
   6:	0800                	addi	s0,sp,16
   8:	f00500d3          	fmv.w.x	ft1,a0

000000000000000c <.LBB0_10>:
   c:	00000517          	auipc	a0,0x0
  10:	00050513          	mv	a0,a0
  14:	0015f613          	andi	a2,a1,1
  18:	00163613          	seqz	a2,a2
  1c:	ea09                	bnez	a2,2e <.LBB0_10+0x22>
  1e:	20108053          	fmv.s	ft0,ft1
  22:	0015861b          	addiw	a2,a1,1
  26:	468d                	li	a3,3
  28:	00d67a63          	bgeu	a2,a3,3c <.LBB0_10+0x30>
  2c:	a835                	j	68 <.LBB0_10+0x5c>
  2e:	00052007          	flw	ft0,0(a0) # c <.LBB0_10>
  32:	0015861b          	addiw	a2,a1,1
  36:	468d                	li	a3,3
  38:	02d66863          	bltu	a2,a3,68 <.LBB0_10+0x5c>
  3c:	4609                	li	a2,2
  3e:	86ae                	mv	a3,a1
  40:	a029                	j	4a <.LBB0_10+0x3e>
  42:	00168713          	addi	a4,a3,1
  46:	02e67163          	bgeu	a2,a4,68 <.LBB0_10+0x5c>
  4a:	01f6d71b          	srliw	a4,a3,0x1f
  4e:	96ba                	add	a3,a3,a4
  50:	4016d69b          	sraiw	a3,a3,0x1
  54:	0016f713          	andi	a4,a3,1
  58:	00173713          	seqz	a4,a4
  5c:	1010f0d3          	fmul.s	ft1,ft1,ft1
  60:	f36d                	bnez	a4,42 <.LBB0_10+0x36>
  62:	10107053          	fmul.s	ft0,ft0,ft1
  66:	bff1                	j	42 <.LBB0_10+0x36>
  68:	0005a593          	slti	a1,a1,0
  6c:	c589                	beqz	a1,76 <.LBB0_10+0x6a>
  6e:	00052087          	flw	ft1,0(a0)
  72:	1800f053          	fdiv.s	ft0,ft1,ft0
  76:	e0000553          	fmv.x.w	a0,ft0
  7a:	6402                	ld	s0,0(sp)
  7c:	60a2                	ld	ra,8(sp)
  7e:	0141                	addi	sp,sp,16
  80:	8082                	ret

Disassembly of section .text.__powidf2:

0000000000000000 <__powidf2>:
   0:	1141                	addi	sp,sp,-16
   2:	e406                	sd	ra,8(sp)
   4:	e022                	sd	s0,0(sp)
   6:	0800                	addi	s0,sp,16
   8:	f20500d3          	fmv.d.x	ft1,a0

000000000000000c <.LBB1_10>:
   c:	00000517          	auipc	a0,0x0
  10:	00050513          	mv	a0,a0
  14:	0015f613          	andi	a2,a1,1
  18:	00163613          	seqz	a2,a2
  1c:	ea09                	bnez	a2,2e <.LBB1_10+0x22>
  1e:	22108053          	fmv.d	ft0,ft1
  22:	0015861b          	addiw	a2,a1,1
  26:	468d                	li	a3,3
  28:	00d67a63          	bgeu	a2,a3,3c <.LBB1_10+0x30>
  2c:	a835                	j	68 <.LBB1_10+0x5c>
  2e:	00053007          	fld	ft0,0(a0) # c <.LBB1_10>
  32:	0015861b          	addiw	a2,a1,1
  36:	468d                	li	a3,3
  38:	02d66863          	bltu	a2,a3,68 <.LBB1_10+0x5c>
  3c:	4609                	li	a2,2
  3e:	86ae                	mv	a3,a1
  40:	a029                	j	4a <.LBB1_10+0x3e>
  42:	00168713          	addi	a4,a3,1
  46:	02e67163          	bgeu	a2,a4,68 <.LBB1_10+0x5c>
  4a:	01f6d71b          	srliw	a4,a3,0x1f
  4e:	96ba                	add	a3,a3,a4
  50:	4016d69b          	sraiw	a3,a3,0x1
  54:	0016f713          	andi	a4,a3,1
  58:	00173713          	seqz	a4,a4
  5c:	1210f0d3          	fmul.d	ft1,ft1,ft1
  60:	f36d                	bnez	a4,42 <.LBB1_10+0x36>
  62:	12107053          	fmul.d	ft0,ft0,ft1
  66:	bff1                	j	42 <.LBB1_10+0x36>
  68:	0005a593          	slti	a1,a1,0
  6c:	c589                	beqz	a1,76 <.LBB1_10+0x6a>
  6e:	00053087          	fld	ft1,0(a0)
  72:	1a00f053          	fdiv.d	ft0,ft1,ft0
  76:	e2000553          	fmv.x.d	a0,ft0
  7a:	6402                	ld	s0,0(sp)
  7c:	60a2                	ld	ra,8(sp)
  7e:	0141                	addi	sp,sp,16
  80:	8082                	ret

compiler_builtins-fe5d7b548202ece1.compiler_builtins.5z26s2vv-cgu.15.rcgu.o:     file format elf64-littleriscv


Disassembly of section .text._ZN50_$LT$T$u20$as$u20$core..convert..From$LT$T$GT$$GT$4from17h6f72f08d36604531E:

0000000000000000 <_ZN50_$LT$T$u20$as$u20$core..convert..From$LT$T$GT$$GT$4from17h6f72f08d36604531E>:
   0:	1141                	addi	sp,sp,-16
   2:	e406                	sd	ra,8(sp)
   4:	e022                	sd	s0,0(sp)
   6:	0800                	addi	s0,sp,16
   8:	6402                	ld	s0,0(sp)
   a:	60a2                	ld	ra,8(sp)
   c:	0141                	addi	sp,sp,16
   e:	8082                	ret

Disassembly of section .text._ZN17compiler_builtins5abort17h601e9d07d755b262E:

0000000000000000 <_ZN17compiler_builtins5abort17h601e9d07d755b262E>:
   0:	1141                	addi	sp,sp,-16
   2:	e406                	sd	ra,8(sp)
   4:	e022                	sd	s0,0(sp)
   6:	0800                	addi	s0,sp,16
   8:	00000097          	auipc	ra,0x0
   c:	000080e7          	jalr	ra # 8 <_ZN17compiler_builtins5abort17h601e9d07d755b262E+0x8>
  10:	00000097          	auipc	ra,0x0
  14:	000080e7          	jalr	ra # 10 <_ZN17compiler_builtins5abort17h601e9d07d755b262E+0x10>

Disassembly of section .text.__subsf3:

0000000000000000 <__subsf3>:
   0:	1141                	addi	sp,sp,-16
   2:	e406                	sd	ra,8(sp)
   4:	e022                	sd	s0,0(sp)
   6:	0800                	addi	s0,sp,16
   8:	80000637          	lui	a2,0x80000
   c:	8db1                	xor	a1,a1,a2
   e:	6402                	ld	s0,0(sp)
  10:	60a2                	ld	ra,8(sp)
  12:	0141                	addi	sp,sp,16
  14:	00000317          	auipc	t1,0x0
  18:	00030067          	jr	t1 # 14 <__subsf3+0x14>

Disassembly of section .text.__subdf3:

0000000000000000 <__subdf3>:
   0:	1141                	addi	sp,sp,-16
   2:	e406                	sd	ra,8(sp)
   4:	e022                	sd	s0,0(sp)
   6:	0800                	addi	s0,sp,16
   8:	567d                	li	a2,-1
   a:	167e                	slli	a2,a2,0x3f
   c:	8db1                	xor	a1,a1,a2
   e:	6402                	ld	s0,0(sp)
  10:	60a2                	ld	ra,8(sp)
  12:	0141                	addi	sp,sp,16
  14:	00000317          	auipc	t1,0x0
  18:	00030067          	jr	t1 # 14 <__subdf3+0x14>

compiler_builtins-fe5d7b548202ece1.compiler_builtins.5z26s2vv-cgu.2.rcgu.o:     file format elf64-littleriscv


Disassembly of section .text.__divsf3:

0000000000000000 <__divsf3>:
   0:	1141                	addi	sp,sp,-16
   2:	e406                	sd	ra,8(sp)
   4:	e022                	sd	s0,0(sp)
   6:	0800                	addi	s0,sp,16
   8:	00a5c633          	xor	a2,a1,a0
   c:	80000737          	lui	a4,0x80000
  10:	00e67833          	and	a6,a2,a4
  14:	00800637          	lui	a2,0x800
  18:	fff60f1b          	addiw	t5,a2,-1
  1c:	01e5f3b3          	and	t2,a1,t5
  20:	01e578b3          	and	a7,a0,t5
  24:	0175d613          	srli	a2,a1,0x17
  28:	0ff67e13          	andi	t3,a2,255
  2c:	01755613          	srli	a2,a0,0x17
  30:	0ff67e93          	andi	t4,a2,255
  34:	fffe8613          	addi	a2,t4,-1
  38:	0fd00693          	li	a3,253
  3c:	0cc6e063          	bltu	a3,a2,fc <__divsf3+0xfc>
  40:	fffe0613          	addi	a2,t3,-1
  44:	0fe00693          	li	a3,254
  48:	0ad67a63          	bgeu	a2,a3,fc <__divsf3+0xfc>
  4c:	4301                	li	t1,0
  4e:	00800537          	lui	a0,0x800
  52:	00a3e5b3          	or	a1,t2,a0
  56:	7504f537          	lui	a0,0x7504f
  5a:	3335051b          	addiw	a0,a0,819
  5e:	00859613          	slli	a2,a1,0x8
  62:	40c506b3          	sub	a3,a0,a2
  66:	02061513          	slli	a0,a2,0x20
  6a:	9101                	srli	a0,a0,0x20
  6c:	02069613          	slli	a2,a3,0x20
  70:	02065793          	srli	a5,a2,0x20
  74:	4605                	li	a2,1
  76:	01f61713          	slli	a4,a2,0x1f
  7a:	02a78633          	mul	a2,a5,a0
  7e:	02065693          	srli	a3,a2,0x20
  82:	863a                	mv	a2,a4
  84:	00e68663          	beq	a3,a4,90 <__divsf3+0x90>
  88:	40d00633          	neg	a2,a3
  8c:	1602                	slli	a2,a2,0x20
  8e:	9201                	srli	a2,a2,0x20
  90:	02f60633          	mul	a2,a2,a5
  94:	827d                	srli	a2,a2,0x1f
  96:	1602                	slli	a2,a2,0x20
  98:	02065793          	srli	a5,a2,0x20
  9c:	02a78633          	mul	a2,a5,a0
  a0:	02065693          	srli	a3,a2,0x20
  a4:	863a                	mv	a2,a4
  a6:	00e68663          	beq	a3,a4,b2 <__divsf3+0xb2>
  aa:	40d00633          	neg	a2,a3
  ae:	1602                	slli	a2,a2,0x20
  b0:	9201                	srli	a2,a2,0x20
  b2:	02f60633          	mul	a2,a2,a5
  b6:	827d                	srli	a2,a2,0x1f
  b8:	1602                	slli	a2,a2,0x20
  ba:	02065793          	srli	a5,a2,0x20
  be:	02a78533          	mul	a0,a5,a0
  c2:	9101                	srli	a0,a0,0x20
  c4:	00e50763          	beq	a0,a4,d2 <__divsf3+0xd2>
  c8:	40a00533          	neg	a0,a0
  cc:	1502                	slli	a0,a0,0x20
  ce:	02055713          	srli	a4,a0,0x20
  d2:	00189513          	slli	a0,a7,0x1
  d6:	01000637          	lui	a2,0x1000
  da:	8d51                	or	a0,a0,a2
  dc:	02f70633          	mul	a2,a4,a5
  e0:	1502                	slli	a0,a0,0x20
  e2:	9101                	srli	a0,a0,0x20
  e4:	827d                	srli	a2,a2,0x1f
  e6:	1679                	addi	a2,a2,-2
  e8:	1602                	slli	a2,a2,0x20
  ea:	9201                	srli	a2,a2,0x20
  ec:	02a60533          	mul	a0,a2,a0
  f0:	03855793          	srli	a5,a0,0x38
  f4:	c395                	beqz	a5,118 <__divsf3+0x118>
  f6:	9105                	srli	a0,a0,0x21
  f8:	475d                	li	a4,23
  fa:	a00d                	j	11c <__divsf3+0x11c>
  fc:	fff7079b          	addiw	a5,a4,-1
 100:	00f57733          	and	a4,a0,a5
 104:	7f800637          	lui	a2,0x7f800
 108:	06e67363          	bgeu	a2,a4,16e <__divsf3+0x16e>
 10c:	004005b7          	lui	a1,0x400
 110:	8d4d                	or	a0,a0,a1
 112:	f0050053          	fmv.w.x	ft0,a0
 116:	a079                	j	1a4 <.LBB0_40+0x16>
 118:	9101                	srli	a0,a0,0x20
 11a:	4761                	li	a4,24
 11c:	41ce8633          	sub	a2,t4,t3
 120:	961a                	add	a2,a2,t1
 122:	0017b693          	seqz	a3,a5
 126:	8e15                	sub	a2,a2,a3
 128:	07f60613          	addi	a2,a2,127 # 7f80007f <.LBB1_41+0x7f7ffead>
 12c:	0fe00693          	li	a3,254
 130:	00c6d963          	bge	a3,a2,142 <__divsf3+0x142>
 134:	7f800537          	lui	a0,0x7f800
 138:	00a86533          	or	a0,a6,a0
 13c:	f0050053          	fmv.w.x	ft0,a0
 140:	a095                	j	1a4 <.LBB0_40+0x16>
 142:	4685                	li	a3,1
 144:	04d64e63          	blt	a2,a3,1a0 <.LBB0_40+0x12>
 148:	00e896bb          	sllw	a3,a7,a4
 14c:	02a58733          	mul	a4,a1,a0
 150:	8e99                	sub	a3,a3,a4
 152:	0016969b          	slliw	a3,a3,0x1
 156:	00d5b5b3          	sltu	a1,a1,a3
 15a:	01e57533          	and	a0,a0,t5
 15e:	065e                	slli	a2,a2,0x17
 160:	8d51                	or	a0,a0,a2
 162:	952e                	add	a0,a0,a1
 164:	01056533          	or	a0,a0,a6
 168:	f0050053          	fmv.w.x	ft0,a0
 16c:	a825                	j	1a4 <.LBB0_40+0x16>
 16e:	00f5f2b3          	and	t0,a1,a5
 172:	00567863          	bgeu	a2,t0,182 <__divsf3+0x182>
 176:	00400537          	lui	a0,0x400
 17a:	8d4d                	or	a0,a0,a1
 17c:	f0050053          	fmv.w.x	ft0,a0
 180:	a015                	j	1a4 <.LBB0_40+0x16>
 182:	7f800637          	lui	a2,0x7f800
 186:	00c71b63          	bne	a4,a2,19c <.LBB0_40+0xe>
 18a:	02c29363          	bne	t0,a2,1b0 <.LBB0_40+0x22>

000000000000018e <.LBB0_40>:
 18e:	00000517          	auipc	a0,0x0
 192:	00050513          	mv	a0,a0
 196:	00052007          	flw	ft0,0(a0) # 18e <.LBB0_40>
 19a:	a029                	j	1a4 <.LBB0_40+0x16>
 19c:	02c29163          	bne	t0,a2,1be <.LBB0_40+0x30>
 1a0:	f0080053          	fmv.w.x	ft0,a6
 1a4:	e0000553          	fmv.x.w	a0,ft0
 1a8:	6402                	ld	s0,0(sp)
 1aa:	60a2                	ld	ra,8(sp)
 1ac:	0141                	addi	sp,sp,16
 1ae:	8082                	ret
 1b0:	80000637          	lui	a2,0x80000
 1b4:	8df1                	and	a1,a1,a2
 1b6:	8d2d                	xor	a0,a0,a1
 1b8:	f0050053          	fmv.w.x	ft0,a0
 1bc:	b7e5                	j	1a4 <.LBB0_40+0x16>
 1be:	c361                	beqz	a4,27e <.LBB0_40+0xf0>
 1c0:	f6028ae3          	beqz	t0,134 <__divsf3+0x134>
 1c4:	01775513          	srli	a0,a4,0x17
 1c8:	ed5d                	bnez	a0,286 <.LBB0_40+0xf8>
 1ca:	0c088463          	beqz	a7,292 <.LBB0_40+0x104>
 1ce:	0018d513          	srli	a0,a7,0x1
 1d2:	00a8e533          	or	a0,a7,a0
 1d6:	00255593          	srli	a1,a0,0x2
 1da:	8d4d                	or	a0,a0,a1
 1dc:	00455593          	srli	a1,a0,0x4
 1e0:	8d4d                	or	a0,a0,a1
 1e2:	00855593          	srli	a1,a0,0x8
 1e6:	8d4d                	or	a0,a0,a1
 1e8:	01055593          	srli	a1,a0,0x10
 1ec:	8d4d                	or	a0,a0,a1
 1ee:	02055593          	srli	a1,a0,0x20
 1f2:	8d4d                	or	a0,a0,a1
 1f4:	055555b7          	lui	a1,0x5555
 1f8:	5555859b          	addiw	a1,a1,1365
 1fc:	05b2                	slli	a1,a1,0xc
 1fe:	55558593          	addi	a1,a1,1365 # 5555555 <.LBB1_41+0x5555383>
 202:	05b2                	slli	a1,a1,0xc
 204:	55558593          	addi	a1,a1,1365
 208:	05b2                	slli	a1,a1,0xc
 20a:	fff54513          	not	a0,a0
 20e:	55558593          	addi	a1,a1,1365
 212:	00155613          	srli	a2,a0,0x1
 216:	8df1                	and	a1,a1,a2
 218:	8d0d                	sub	a0,a0,a1
 21a:	033335b7          	lui	a1,0x3333
 21e:	3335859b          	addiw	a1,a1,819
 222:	05b2                	slli	a1,a1,0xc
 224:	33358593          	addi	a1,a1,819 # 3333333 <.LBB1_41+0x3333161>
 228:	05b2                	slli	a1,a1,0xc
 22a:	33358593          	addi	a1,a1,819
 22e:	05b2                	slli	a1,a1,0xc
 230:	33358593          	addi	a1,a1,819
 234:	00b57633          	and	a2,a0,a1
 238:	8109                	srli	a0,a0,0x2
 23a:	8d6d                	and	a0,a0,a1
 23c:	9532                	add	a0,a0,a2
 23e:	00455593          	srli	a1,a0,0x4
 242:	952e                	add	a0,a0,a1
 244:	00f0f5b7          	lui	a1,0xf0f
 248:	0f15859b          	addiw	a1,a1,241
 24c:	05b2                	slli	a1,a1,0xc
 24e:	f0f58593          	addi	a1,a1,-241 # f0ef0f <.LBB1_41+0xf0ed3d>
 252:	05b2                	slli	a1,a1,0xc
 254:	0f158593          	addi	a1,a1,241
 258:	05b2                	slli	a1,a1,0xc
 25a:	f0f58593          	addi	a1,a1,-241
 25e:	8d6d                	and	a0,a0,a1
 260:	010105b7          	lui	a1,0x1010
 264:	1015859b          	addiw	a1,a1,257
 268:	05c2                	slli	a1,a1,0x10
 26a:	10158593          	addi	a1,a1,257 # 1010101 <.LBB1_41+0x100ff2f>
 26e:	05c2                	slli	a1,a1,0x10
 270:	10158593          	addi	a1,a1,257
 274:	02b50533          	mul	a0,a0,a1
 278:	9161                	srli	a0,a0,0x38
 27a:	1501                	addi	a0,a0,-32
 27c:	a829                	j	296 <.LBB0_40+0x108>
 27e:	0012b513          	seqz	a0,t0
 282:	f511                	bnez	a0,18e <.LBB0_40>
 284:	bf31                	j	1a0 <.LBB0_40+0x12>
 286:	4301                	li	t1,0
 288:	0172d513          	srli	a0,t0,0x17
 28c:	dc0511e3          	bnez	a0,4e <__divsf3+0x4e>
 290:	a829                	j	2aa <.LBB0_40+0x11c>
 292:	02000513          	li	a0,32
 296:	45a5                	li	a1,9
 298:	40a58333          	sub	t1,a1,a0
 29c:	0561                	addi	a0,a0,24
 29e:	00a898bb          	sllw	a7,a7,a0
 2a2:	0172d513          	srli	a0,t0,0x17
 2a6:	da0514e3          	bnez	a0,4e <__divsf3+0x4e>
 2aa:	0a038a63          	beqz	t2,35e <.LBB0_40+0x1d0>
 2ae:	0013d513          	srli	a0,t2,0x1
 2b2:	00a3e533          	or	a0,t2,a0
 2b6:	00255593          	srli	a1,a0,0x2
 2ba:	8d4d                	or	a0,a0,a1
 2bc:	00455593          	srli	a1,a0,0x4
 2c0:	8d4d                	or	a0,a0,a1
 2c2:	00855593          	srli	a1,a0,0x8
 2c6:	8d4d                	or	a0,a0,a1
 2c8:	01055593          	srli	a1,a0,0x10
 2cc:	8d4d                	or	a0,a0,a1
 2ce:	02055593          	srli	a1,a0,0x20
 2d2:	8d4d                	or	a0,a0,a1
 2d4:	055555b7          	lui	a1,0x5555
 2d8:	5555859b          	addiw	a1,a1,1365
 2dc:	05b2                	slli	a1,a1,0xc
 2de:	55558593          	addi	a1,a1,1365 # 5555555 <.LBB1_41+0x5555383>
 2e2:	05b2                	slli	a1,a1,0xc
 2e4:	55558593          	addi	a1,a1,1365
 2e8:	05b2                	slli	a1,a1,0xc
 2ea:	fff54513          	not	a0,a0
 2ee:	55558593          	addi	a1,a1,1365
 2f2:	00155613          	srli	a2,a0,0x1
 2f6:	8df1                	and	a1,a1,a2
 2f8:	8d0d                	sub	a0,a0,a1
 2fa:	033335b7          	lui	a1,0x3333
 2fe:	3335859b          	addiw	a1,a1,819
 302:	05b2                	slli	a1,a1,0xc
 304:	33358593          	addi	a1,a1,819 # 3333333 <.LBB1_41+0x3333161>
 308:	05b2                	slli	a1,a1,0xc
 30a:	33358593          	addi	a1,a1,819
 30e:	05b2                	slli	a1,a1,0xc
 310:	33358593          	addi	a1,a1,819
 314:	00b57633          	and	a2,a0,a1
 318:	8109                	srli	a0,a0,0x2
 31a:	8d6d                	and	a0,a0,a1
 31c:	9532                	add	a0,a0,a2
 31e:	00455593          	srli	a1,a0,0x4
 322:	952e                	add	a0,a0,a1
 324:	00f0f5b7          	lui	a1,0xf0f
 328:	0f15859b          	addiw	a1,a1,241
 32c:	05b2                	slli	a1,a1,0xc
 32e:	f0f58593          	addi	a1,a1,-241 # f0ef0f <.LBB1_41+0xf0ed3d>
 332:	05b2                	slli	a1,a1,0xc
 334:	0f158593          	addi	a1,a1,241
 338:	05b2                	slli	a1,a1,0xc
 33a:	f0f58593          	addi	a1,a1,-241
 33e:	8d6d                	and	a0,a0,a1
 340:	010105b7          	lui	a1,0x1010
 344:	1015859b          	addiw	a1,a1,257
 348:	05c2                	slli	a1,a1,0x10
 34a:	10158593          	addi	a1,a1,257 # 1010101 <.LBB1_41+0x100ff2f>
 34e:	05c2                	slli	a1,a1,0x10
 350:	10158593          	addi	a1,a1,257
 354:	02b50533          	mul	a0,a0,a1
 358:	9161                	srli	a0,a0,0x38
 35a:	1501                	addi	a0,a0,-32
 35c:	a019                	j	362 <.LBB0_40+0x1d4>
 35e:	02000513          	li	a0,32
 362:	01850593          	addi	a1,a0,24
 366:	00b393bb          	sllw	t2,t2,a1
 36a:	951a                	add	a0,a0,t1
 36c:	ff750313          	addi	t1,a0,-9
 370:	b9f9                	j	4e <__divsf3+0x4e>

Disassembly of section .text.__divdf3:

0000000000000000 <__divdf3>:
   0:	1141                	addi	sp,sp,-16
   2:	e406                	sd	ra,8(sp)
   4:	e022                	sd	s0,0(sp)
   6:	0800                	addi	s0,sp,16
   8:	567d                	li	a2,-1
   a:	167e                	slli	a2,a2,0x3f
   c:	fff60793          	addi	a5,a2,-1 # ffffffff7fffffff <.LBB1_41+0xffffffff7ffffe2d>
  10:	00a5c633          	xor	a2,a1,a0
  14:	00178713          	addi	a4,a5,1
  18:	00e67833          	and	a6,a2,a4
  1c:	0345d613          	srli	a2,a1,0x34
  20:	7ff67393          	andi	t2,a2,2047
  24:	4605                	li	a2,1
  26:	1652                	slli	a2,a2,0x34
  28:	fff60f13          	addi	t5,a2,-1
  2c:	01e5fe33          	and	t3,a1,t5
  30:	01e578b3          	and	a7,a0,t5
  34:	03455613          	srli	a2,a0,0x34
  38:	7ff67e93          	andi	t4,a2,2047
  3c:	fffe8613          	addi	a2,t4,-1
  40:	7fd00693          	li	a3,2045
  44:	12c6e363          	bltu	a3,a2,16a <__divdf3+0x16a>
  48:	fff38613          	addi	a2,t2,-1
  4c:	7fe00693          	li	a3,2046
  50:	10d67d63          	bgeu	a2,a3,16a <__divdf3+0x16a>
  54:	4301                	li	t1,0
  56:	001f0513          	addi	a0,t5,1
  5a:	00ae62b3          	or	t0,t3,a0
  5e:	7504f537          	lui	a0,0x7504f
  62:	3335051b          	addiw	a0,a0,819
  66:	0152d593          	srli	a1,t0,0x15
  6a:	8d0d                	sub	a0,a0,a1
  6c:	1582                	slli	a1,a1,0x20
  6e:	0205d793          	srli	a5,a1,0x20
  72:	1502                	slli	a0,a0,0x20
  74:	02055613          	srli	a2,a0,0x20
  78:	02f60533          	mul	a0,a2,a5
  7c:	02055593          	srli	a1,a0,0x20
  80:	4505                	li	a0,1
  82:	01f51713          	slli	a4,a0,0x1f
  86:	86ba                	mv	a3,a4
  88:	00e58763          	beq	a1,a4,96 <__divdf3+0x96>
  8c:	40b005b3          	neg	a1,a1
  90:	1582                	slli	a1,a1,0x20
  92:	0205d693          	srli	a3,a1,0x20
  96:	02c685b3          	mul	a1,a3,a2
  9a:	81fd                	srli	a1,a1,0x1f
  9c:	1582                	slli	a1,a1,0x20
  9e:	0205d613          	srli	a2,a1,0x20
  a2:	02f605b3          	mul	a1,a2,a5
  a6:	0205d693          	srli	a3,a1,0x20
  aa:	85ba                	mv	a1,a4
  ac:	00e68663          	beq	a3,a4,b8 <__divdf3+0xb8>
  b0:	40d005b3          	neg	a1,a3
  b4:	1582                	slli	a1,a1,0x20
  b6:	9181                	srli	a1,a1,0x20
  b8:	02c585b3          	mul	a1,a1,a2
  bc:	81fd                	srli	a1,a1,0x1f
  be:	1582                	slli	a1,a1,0x20
  c0:	0205d613          	srli	a2,a1,0x20
  c4:	02f605b3          	mul	a1,a2,a5
  c8:	9181                	srli	a1,a1,0x20
  ca:	00e58763          	beq	a1,a4,d8 <__divdf3+0xd8>
  ce:	40b005b3          	neg	a1,a1
  d2:	1582                	slli	a1,a1,0x20
  d4:	0205d713          	srli	a4,a1,0x20
  d8:	00be1593          	slli	a1,t3,0xb
  dc:	02051693          	slli	a3,a0,0x20
  e0:	16fd                	addi	a3,a3,-1
  e2:	80168693          	addi	a3,a3,-2047
  e6:	8df5                	and	a1,a1,a3
  e8:	02c70633          	mul	a2,a4,a2
  ec:	827d                	srli	a2,a2,0x1f
  ee:	167d                	addi	a2,a2,-1
  f0:	1602                	slli	a2,a2,0x20
  f2:	9201                	srli	a2,a2,0x20
  f4:	02f606b3          	mul	a3,a2,a5
  f8:	02b605b3          	mul	a1,a2,a1
  fc:	9181                	srli	a1,a1,0x20
  fe:	95b6                	add	a1,a1,a3
 100:	56fd                	li	a3,-1
 102:	03f69713          	slli	a4,a3,0x3f
 106:	00e58463          	beq	a1,a4,10e <__divdf3+0x10e>
 10a:	40b00733          	neg	a4,a1
 10e:	155a                	slli	a0,a0,0x36
 110:	00289593          	slli	a1,a7,0x2
 114:	8d4d                	or	a0,a0,a1
 116:	02075593          	srli	a1,a4,0x20
 11a:	02c585b3          	mul	a1,a1,a2
 11e:	02071693          	slli	a3,a4,0x20
 122:	9281                	srli	a3,a3,0x20
 124:	02c68633          	mul	a2,a3,a2
 128:	9201                	srli	a2,a2,0x20
 12a:	95b2                	add	a1,a1,a2
 12c:	15f9                	addi	a1,a1,-2
 12e:	02a5b533          	mulhu	a0,a1,a0
 132:	03555713          	srli	a4,a0,0x35
 136:	03500613          	li	a2,53
 13a:	c701                	beqz	a4,142 <__divdf3+0x142>
 13c:	8105                	srli	a0,a0,0x1
 13e:	03400613          	li	a2,52
 142:	407e85b3          	sub	a1,t4,t2
 146:	959a                	add	a1,a1,t1
 148:	00173693          	seqz	a3,a4
 14c:	8d95                	sub	a1,a1,a3
 14e:	3ff58713          	addi	a4,a1,1023
 152:	7fe00593          	li	a1,2046
 156:	02e5d763          	bge	a1,a4,184 <__divdf3+0x184>
 15a:	7ff00513          	li	a0,2047
 15e:	1552                	slli	a0,a0,0x34
 160:	00a86533          	or	a0,a6,a0
 164:	f2050053          	fmv.d.x	ft0,a0
 168:	a041                	j	1e8 <.LBB1_41+0x16>
 16a:	00f57633          	and	a2,a0,a5
 16e:	7ff00693          	li	a3,2047
 172:	16d2                	slli	a3,a3,0x34
 174:	02c6fe63          	bgeu	a3,a2,1b0 <__divdf3+0x1b0>
 178:	4585                	li	a1,1
 17a:	15ce                	slli	a1,a1,0x33
 17c:	8d4d                	or	a0,a0,a1
 17e:	f2050053          	fmv.d.x	ft0,a0
 182:	a09d                	j	1e8 <.LBB1_41+0x16>
 184:	4585                	li	a1,1
 186:	04b74f63          	blt	a4,a1,1e4 <.LBB1_41+0x12>
 18a:	00c895b3          	sll	a1,a7,a2
 18e:	02a28633          	mul	a2,t0,a0
 192:	8d91                	sub	a1,a1,a2
 194:	0586                	slli	a1,a1,0x1
 196:	00b2b5b3          	sltu	a1,t0,a1
 19a:	01e57533          	and	a0,a0,t5
 19e:	03471613          	slli	a2,a4,0x34
 1a2:	8d51                	or	a0,a0,a2
 1a4:	952e                	add	a0,a0,a1
 1a6:	01056533          	or	a0,a0,a6
 1aa:	f2050053          	fmv.d.x	ft0,a0
 1ae:	a82d                	j	1e8 <.LBB1_41+0x16>
 1b0:	00f5f2b3          	and	t0,a1,a5
 1b4:	0056f863          	bgeu	a3,t0,1c4 <__divdf3+0x1c4>
 1b8:	4505                	li	a0,1
 1ba:	154e                	slli	a0,a0,0x33
 1bc:	8d4d                	or	a0,a0,a1
 1be:	f2050053          	fmv.d.x	ft0,a0
 1c2:	a01d                	j	1e8 <.LBB1_41+0x16>
 1c4:	7ff00693          	li	a3,2047
 1c8:	16d2                	slli	a3,a3,0x34
 1ca:	00d61b63          	bne	a2,a3,1e0 <.LBB1_41+0xe>
 1ce:	02d29363          	bne	t0,a3,1f4 <.LBB1_41+0x22>

00000000000001d2 <.LBB1_41>:
 1d2:	00000517          	auipc	a0,0x0
 1d6:	00050513          	mv	a0,a0
 1da:	00053007          	fld	ft0,0(a0) # 1d2 <.LBB1_41>
 1de:	a029                	j	1e8 <.LBB1_41+0x16>
 1e0:	00d29f63          	bne	t0,a3,1fe <.LBB1_41+0x2c>
 1e4:	f2080053          	fmv.d.x	ft0,a6
 1e8:	e2000553          	fmv.x.d	a0,ft0
 1ec:	6402                	ld	s0,0(sp)
 1ee:	60a2                	ld	ra,8(sp)
 1f0:	0141                	addi	sp,sp,16
 1f2:	8082                	ret
 1f4:	8df9                	and	a1,a1,a4
 1f6:	8d2d                	xor	a0,a0,a1
 1f8:	f2050053          	fmv.d.x	ft0,a0
 1fc:	b7f5                	j	1e8 <.LBB1_41+0x16>
 1fe:	ce5d                	beqz	a2,2bc <.LBB1_41+0xea>
 200:	f4028de3          	beqz	t0,15a <__divdf3+0x15a>
 204:	03465513          	srli	a0,a2,0x34
 208:	ed55                	bnez	a0,2c4 <.LBB1_41+0xf2>
 20a:	0c088363          	beqz	a7,2d0 <.LBB1_41+0xfe>
 20e:	0018d513          	srli	a0,a7,0x1
 212:	00a8e533          	or	a0,a7,a0
 216:	00255593          	srli	a1,a0,0x2
 21a:	8d4d                	or	a0,a0,a1
 21c:	00455593          	srli	a1,a0,0x4
 220:	8d4d                	or	a0,a0,a1
 222:	00855593          	srli	a1,a0,0x8
 226:	8d4d                	or	a0,a0,a1
 228:	01055593          	srli	a1,a0,0x10
 22c:	8d4d                	or	a0,a0,a1
 22e:	02055593          	srli	a1,a0,0x20
 232:	8d4d                	or	a0,a0,a1
 234:	055555b7          	lui	a1,0x5555
 238:	5555859b          	addiw	a1,a1,1365
 23c:	05b2                	slli	a1,a1,0xc
 23e:	55558593          	addi	a1,a1,1365 # 5555555 <.LBB1_41+0x5555383>
 242:	05b2                	slli	a1,a1,0xc
 244:	55558593          	addi	a1,a1,1365
 248:	05b2                	slli	a1,a1,0xc
 24a:	fff54513          	not	a0,a0
 24e:	55558593          	addi	a1,a1,1365
 252:	00155613          	srli	a2,a0,0x1
 256:	8df1                	and	a1,a1,a2
 258:	8d0d                	sub	a0,a0,a1
 25a:	033335b7          	lui	a1,0x3333
 25e:	3335859b          	addiw	a1,a1,819
 262:	05b2                	slli	a1,a1,0xc
 264:	33358593          	addi	a1,a1,819 # 3333333 <.LBB1_41+0x3333161>
 268:	05b2                	slli	a1,a1,0xc
 26a:	33358593          	addi	a1,a1,819
 26e:	05b2                	slli	a1,a1,0xc
 270:	33358593          	addi	a1,a1,819
 274:	00b57633          	and	a2,a0,a1
 278:	8109                	srli	a0,a0,0x2
 27a:	8d6d                	and	a0,a0,a1
 27c:	9532                	add	a0,a0,a2
 27e:	00455593          	srli	a1,a0,0x4
 282:	952e                	add	a0,a0,a1
 284:	00f0f5b7          	lui	a1,0xf0f
 288:	0f15859b          	addiw	a1,a1,241
 28c:	05b2                	slli	a1,a1,0xc
 28e:	f0f58593          	addi	a1,a1,-241 # f0ef0f <.LBB1_41+0xf0ed3d>
 292:	05b2                	slli	a1,a1,0xc
 294:	0f158593          	addi	a1,a1,241
 298:	05b2                	slli	a1,a1,0xc
 29a:	f0f58593          	addi	a1,a1,-241
 29e:	8d6d                	and	a0,a0,a1
 2a0:	010105b7          	lui	a1,0x1010
 2a4:	1015859b          	addiw	a1,a1,257
 2a8:	05c2                	slli	a1,a1,0x10
 2aa:	10158593          	addi	a1,a1,257 # 1010101 <.LBB1_41+0x100ff2f>
 2ae:	05c2                	slli	a1,a1,0x10
 2b0:	10158593          	addi	a1,a1,257
 2b4:	02b50533          	mul	a0,a0,a1
 2b8:	9161                	srli	a0,a0,0x38
 2ba:	a829                	j	2d4 <.LBB1_41+0x102>
 2bc:	0012b513          	seqz	a0,t0
 2c0:	f909                	bnez	a0,1d2 <.LBB1_41>
 2c2:	b70d                	j	1e4 <.LBB1_41+0x12>
 2c4:	4301                	li	t1,0
 2c6:	0342d513          	srli	a0,t0,0x34
 2ca:	d80516e3          	bnez	a0,56 <__divdf3+0x56>
 2ce:	a831                	j	2ea <.LBB1_41+0x118>
 2d0:	04000513          	li	a0,64
 2d4:	45b1                	li	a1,12
 2d6:	40a58333          	sub	t1,a1,a0
 2da:	03550513          	addi	a0,a0,53
 2de:	00a898b3          	sll	a7,a7,a0
 2e2:	0342d513          	srli	a0,t0,0x34
 2e6:	d60518e3          	bnez	a0,56 <__divdf3+0x56>
 2ea:	0a0e0963          	beqz	t3,39c <.LBB1_41+0x1ca>
 2ee:	001e5513          	srli	a0,t3,0x1
 2f2:	00ae6533          	or	a0,t3,a0
 2f6:	00255593          	srli	a1,a0,0x2
 2fa:	8d4d                	or	a0,a0,a1
 2fc:	00455593          	srli	a1,a0,0x4
 300:	8d4d                	or	a0,a0,a1
 302:	00855593          	srli	a1,a0,0x8
 306:	8d4d                	or	a0,a0,a1
 308:	01055593          	srli	a1,a0,0x10
 30c:	8d4d                	or	a0,a0,a1
 30e:	02055593          	srli	a1,a0,0x20
 312:	8d4d                	or	a0,a0,a1
 314:	055555b7          	lui	a1,0x5555
 318:	5555859b          	addiw	a1,a1,1365
 31c:	05b2                	slli	a1,a1,0xc
 31e:	55558593          	addi	a1,a1,1365 # 5555555 <.LBB1_41+0x5555383>
 322:	05b2                	slli	a1,a1,0xc
 324:	55558593          	addi	a1,a1,1365
 328:	05b2                	slli	a1,a1,0xc
 32a:	fff54513          	not	a0,a0
 32e:	55558593          	addi	a1,a1,1365
 332:	00155613          	srli	a2,a0,0x1
 336:	8df1                	and	a1,a1,a2
 338:	8d0d                	sub	a0,a0,a1
 33a:	033335b7          	lui	a1,0x3333
 33e:	3335859b          	addiw	a1,a1,819
 342:	05b2                	slli	a1,a1,0xc
 344:	33358593          	addi	a1,a1,819 # 3333333 <.LBB1_41+0x3333161>
 348:	05b2                	slli	a1,a1,0xc
 34a:	33358593          	addi	a1,a1,819
 34e:	05b2                	slli	a1,a1,0xc
 350:	33358593          	addi	a1,a1,819
 354:	00b57633          	and	a2,a0,a1
 358:	8109                	srli	a0,a0,0x2
 35a:	8d6d                	and	a0,a0,a1
 35c:	9532                	add	a0,a0,a2
 35e:	00455593          	srli	a1,a0,0x4
 362:	952e                	add	a0,a0,a1
 364:	00f0f5b7          	lui	a1,0xf0f
 368:	0f15859b          	addiw	a1,a1,241
 36c:	05b2                	slli	a1,a1,0xc
 36e:	f0f58593          	addi	a1,a1,-241 # f0ef0f <.LBB1_41+0xf0ed3d>
 372:	05b2                	slli	a1,a1,0xc
 374:	0f158593          	addi	a1,a1,241
 378:	05b2                	slli	a1,a1,0xc
 37a:	f0f58593          	addi	a1,a1,-241
 37e:	8d6d                	and	a0,a0,a1
 380:	010105b7          	lui	a1,0x1010
 384:	1015859b          	addiw	a1,a1,257
 388:	05c2                	slli	a1,a1,0x10
 38a:	10158593          	addi	a1,a1,257 # 1010101 <.LBB1_41+0x100ff2f>
 38e:	05c2                	slli	a1,a1,0x10
 390:	10158593          	addi	a1,a1,257
 394:	02b50533          	mul	a0,a0,a1
 398:	9161                	srli	a0,a0,0x38
 39a:	a019                	j	3a0 <.LBB1_41+0x1ce>
 39c:	04000513          	li	a0,64
 3a0:	03550593          	addi	a1,a0,53
 3a4:	00be1e33          	sll	t3,t3,a1
 3a8:	951a                	add	a0,a0,t1
 3aa:	ff450313          	addi	t1,a0,-12
 3ae:	b165                	j	56 <__divdf3+0x56>

compiler_builtins-fe5d7b548202ece1.compiler_builtins.5z26s2vv-cgu.3.rcgu.o:     file format elf64-littleriscv


Disassembly of section .text.__udivsi3:

0000000000000000 <__udivsi3>:
   0:	1141                	addi	sp,sp,-16
   2:	e406                	sd	ra,8(sp)
   4:	e022                	sd	s0,0(sp)
   6:	0800                	addi	s0,sp,16
   8:	1e058263          	beqz	a1,1ec <__udivsi3+0x1ec>
   c:	18050063          	beqz	a0,18c <__udivsi3+0x18c>
  10:	02000613          	li	a2,32
  14:	02000693          	li	a3,32
  18:	c9d5                	beqz	a1,cc <__udivsi3+0xcc>
  1a:	0015d69b          	srliw	a3,a1,0x1
  1e:	02059713          	slli	a4,a1,0x20
  22:	9301                	srli	a4,a4,0x20
  24:	8ed9                	or	a3,a3,a4
  26:	0026d713          	srli	a4,a3,0x2
  2a:	8ed9                	or	a3,a3,a4
  2c:	0046d713          	srli	a4,a3,0x4
  30:	8ed9                	or	a3,a3,a4
  32:	0086d713          	srli	a4,a3,0x8
  36:	8ed9                	or	a3,a3,a4
  38:	0106d713          	srli	a4,a3,0x10
  3c:	8ed9                	or	a3,a3,a4
  3e:	0206d713          	srli	a4,a3,0x20
  42:	8ed9                	or	a3,a3,a4
  44:	05555737          	lui	a4,0x5555
  48:	5557071b          	addiw	a4,a4,1365
  4c:	0732                	slli	a4,a4,0xc
  4e:	55570713          	addi	a4,a4,1365 # 5555555 <__udivsi3+0x5555555>
  52:	0732                	slli	a4,a4,0xc
  54:	55570713          	addi	a4,a4,1365
  58:	0732                	slli	a4,a4,0xc
  5a:	55570713          	addi	a4,a4,1365
  5e:	fff6c693          	not	a3,a3
  62:	0016d793          	srli	a5,a3,0x1
  66:	8f7d                	and	a4,a4,a5
  68:	8e99                	sub	a3,a3,a4
  6a:	03333737          	lui	a4,0x3333
  6e:	3337071b          	addiw	a4,a4,819
  72:	0732                	slli	a4,a4,0xc
  74:	33370713          	addi	a4,a4,819 # 3333333 <__udivsi3+0x3333333>
  78:	0732                	slli	a4,a4,0xc
  7a:	33370713          	addi	a4,a4,819
  7e:	0732                	slli	a4,a4,0xc
  80:	33370713          	addi	a4,a4,819
  84:	00e6f7b3          	and	a5,a3,a4
  88:	8289                	srli	a3,a3,0x2
  8a:	8ef9                	and	a3,a3,a4
  8c:	96be                	add	a3,a3,a5
  8e:	0046d713          	srli	a4,a3,0x4
  92:	96ba                	add	a3,a3,a4
  94:	00f0f737          	lui	a4,0xf0f
  98:	0f17071b          	addiw	a4,a4,241
  9c:	0732                	slli	a4,a4,0xc
  9e:	f0f70713          	addi	a4,a4,-241 # f0ef0f <__udivsi3+0xf0ef0f>
  a2:	0732                	slli	a4,a4,0xc
  a4:	0f170713          	addi	a4,a4,241
  a8:	0732                	slli	a4,a4,0xc
  aa:	f0f70713          	addi	a4,a4,-241
  ae:	8ef9                	and	a3,a3,a4
  b0:	01010737          	lui	a4,0x1010
  b4:	1017071b          	addiw	a4,a4,257
  b8:	0742                	slli	a4,a4,0x10
  ba:	10170713          	addi	a4,a4,257 # 1010101 <__udivsi3+0x1010101>
  be:	0742                	slli	a4,a4,0x10
  c0:	10170713          	addi	a4,a4,257
  c4:	02e686b3          	mul	a3,a3,a4
  c8:	92e1                	srli	a3,a3,0x38
  ca:	1681                	addi	a3,a3,-32
  cc:	c955                	beqz	a0,180 <__udivsi3+0x180>
  ce:	0015561b          	srliw	a2,a0,0x1
  d2:	02051713          	slli	a4,a0,0x20
  d6:	9301                	srli	a4,a4,0x20
  d8:	8e59                	or	a2,a2,a4
  da:	00265713          	srli	a4,a2,0x2
  de:	8e59                	or	a2,a2,a4
  e0:	00465713          	srli	a4,a2,0x4
  e4:	8e59                	or	a2,a2,a4
  e6:	00865713          	srli	a4,a2,0x8
  ea:	8e59                	or	a2,a2,a4
  ec:	01065713          	srli	a4,a2,0x10
  f0:	8e59                	or	a2,a2,a4
  f2:	02065713          	srli	a4,a2,0x20
  f6:	8e59                	or	a2,a2,a4
  f8:	05555737          	lui	a4,0x5555
  fc:	5557071b          	addiw	a4,a4,1365
 100:	0732                	slli	a4,a4,0xc
 102:	55570713          	addi	a4,a4,1365 # 5555555 <__udivsi3+0x5555555>
 106:	0732                	slli	a4,a4,0xc
 108:	55570713          	addi	a4,a4,1365
 10c:	0732                	slli	a4,a4,0xc
 10e:	55570713          	addi	a4,a4,1365
 112:	fff64613          	not	a2,a2
 116:	00165793          	srli	a5,a2,0x1
 11a:	8f7d                	and	a4,a4,a5
 11c:	8e19                	sub	a2,a2,a4
 11e:	03333737          	lui	a4,0x3333
 122:	3337071b          	addiw	a4,a4,819
 126:	0732                	slli	a4,a4,0xc
 128:	33370713          	addi	a4,a4,819 # 3333333 <__udivsi3+0x3333333>
 12c:	0732                	slli	a4,a4,0xc
 12e:	33370713          	addi	a4,a4,819
 132:	0732                	slli	a4,a4,0xc
 134:	33370713          	addi	a4,a4,819
 138:	00e677b3          	and	a5,a2,a4
 13c:	8209                	srli	a2,a2,0x2
 13e:	8e79                	and	a2,a2,a4
 140:	963e                	add	a2,a2,a5
 142:	00465713          	srli	a4,a2,0x4
 146:	963a                	add	a2,a2,a4
 148:	00f0f737          	lui	a4,0xf0f
 14c:	0f17071b          	addiw	a4,a4,241
 150:	0732                	slli	a4,a4,0xc
 152:	f0f70713          	addi	a4,a4,-241 # f0ef0f <__udivsi3+0xf0ef0f>
 156:	0732                	slli	a4,a4,0xc
 158:	0f170713          	addi	a4,a4,241
 15c:	0732                	slli	a4,a4,0xc
 15e:	f0f70713          	addi	a4,a4,-241
 162:	8e79                	and	a2,a2,a4
 164:	01010737          	lui	a4,0x1010
 168:	1017071b          	addiw	a4,a4,257
 16c:	0742                	slli	a4,a4,0x10
 16e:	10170713          	addi	a4,a4,257 # 1010101 <__udivsi3+0x1010101>
 172:	0742                	slli	a4,a4,0x10
 174:	10170713          	addi	a4,a4,257
 178:	02e60633          	mul	a2,a2,a4
 17c:	9261                	srli	a2,a2,0x38
 17e:	1601                	addi	a2,a2,-32
 180:	40c68833          	sub	a6,a3,a2
 184:	02000693          	li	a3,32
 188:	00d86863          	bltu	a6,a3,198 <__udivsi3+0x198>
 18c:	4501                	li	a0,0
 18e:	2501                	sext.w	a0,a0
 190:	6402                	ld	s0,0(sp)
 192:	60a2                	ld	ra,8(sp)
 194:	0141                	addi	sp,sp,16
 196:	8082                	ret
 198:	46fd                	li	a3,31
 19a:	fed80ae3          	beq	a6,a3,18e <__udivsi3+0x18e>
 19e:	410686b3          	sub	a3,a3,a6
 1a2:	00180713          	addi	a4,a6,1
 1a6:	00e5573b          	srlw	a4,a0,a4
 1aa:	00d5153b          	sllw	a0,a0,a3
 1ae:	4881                	li	a7,0
 1b0:	4781                	li	a5,0
 1b2:	0706                	slli	a4,a4,0x1
 1b4:	01f5561b          	srliw	a2,a0,0x1f
 1b8:	8e59                	or	a2,a2,a4
 1ba:	fff64713          	not	a4,a2
 1be:	972e                	add	a4,a4,a1
 1c0:	41f7569b          	sraiw	a3,a4,0x1f
 1c4:	00b6f733          	and	a4,a3,a1
 1c8:	40e60733          	sub	a4,a2,a4
 1cc:	0506                	slli	a0,a0,0x1
 1ce:	00a8e533          	or	a0,a7,a0
 1d2:	00178613          	addi	a2,a5,1
 1d6:	0016f893          	andi	a7,a3,1
 1da:	0007869b          	sext.w	a3,a5
 1de:	87b2                	mv	a5,a2
 1e0:	fd06e9e3          	bltu	a3,a6,1b2 <__udivsi3+0x1b2>
 1e4:	0506                	slli	a0,a0,0x1
 1e6:	00a8e533          	or	a0,a7,a0
 1ea:	b755                	j	18e <__udivsi3+0x18e>
 1ec:	00000097          	auipc	ra,0x0
 1f0:	000080e7          	jalr	ra # 1ec <__udivsi3+0x1ec>
 1f4:	00000097          	auipc	ra,0x0
 1f8:	000080e7          	jalr	ra # 1f4 <__udivsi3+0x1f4>

Disassembly of section .text.__umodsi3:

0000000000000000 <__umodsi3>:
   0:	1141                	addi	sp,sp,-16
   2:	e406                	sd	ra,8(sp)
   4:	e022                	sd	s0,0(sp)
   6:	0800                	addi	s0,sp,16
   8:	1e058763          	beqz	a1,1f6 <__umodsi3+0x1f6>
   c:	16050f63          	beqz	a0,18a <__umodsi3+0x18a>
  10:	02000613          	li	a2,32
  14:	02000693          	li	a3,32
  18:	c9d5                	beqz	a1,cc <__umodsi3+0xcc>
  1a:	0015d69b          	srliw	a3,a1,0x1
  1e:	02059713          	slli	a4,a1,0x20
  22:	9301                	srli	a4,a4,0x20
  24:	8ed9                	or	a3,a3,a4
  26:	0026d713          	srli	a4,a3,0x2
  2a:	8ed9                	or	a3,a3,a4
  2c:	0046d713          	srli	a4,a3,0x4
  30:	8ed9                	or	a3,a3,a4
  32:	0086d713          	srli	a4,a3,0x8
  36:	8ed9                	or	a3,a3,a4
  38:	0106d713          	srli	a4,a3,0x10
  3c:	8ed9                	or	a3,a3,a4
  3e:	0206d713          	srli	a4,a3,0x20
  42:	8ed9                	or	a3,a3,a4
  44:	05555737          	lui	a4,0x5555
  48:	5557071b          	addiw	a4,a4,1365
  4c:	0732                	slli	a4,a4,0xc
  4e:	55570713          	addi	a4,a4,1365 # 5555555 <__umodsi3+0x5555555>
  52:	0732                	slli	a4,a4,0xc
  54:	55570713          	addi	a4,a4,1365
  58:	0732                	slli	a4,a4,0xc
  5a:	55570713          	addi	a4,a4,1365
  5e:	fff6c693          	not	a3,a3
  62:	0016d793          	srli	a5,a3,0x1
  66:	8f7d                	and	a4,a4,a5
  68:	8e99                	sub	a3,a3,a4
  6a:	03333737          	lui	a4,0x3333
  6e:	3337071b          	addiw	a4,a4,819
  72:	0732                	slli	a4,a4,0xc
  74:	33370713          	addi	a4,a4,819 # 3333333 <__umodsi3+0x3333333>
  78:	0732                	slli	a4,a4,0xc
  7a:	33370713          	addi	a4,a4,819
  7e:	0732                	slli	a4,a4,0xc
  80:	33370713          	addi	a4,a4,819
  84:	00e6f7b3          	and	a5,a3,a4
  88:	8289                	srli	a3,a3,0x2
  8a:	8ef9                	and	a3,a3,a4
  8c:	96be                	add	a3,a3,a5
  8e:	0046d713          	srli	a4,a3,0x4
  92:	96ba                	add	a3,a3,a4
  94:	00f0f737          	lui	a4,0xf0f
  98:	0f17071b          	addiw	a4,a4,241
  9c:	0732                	slli	a4,a4,0xc
  9e:	f0f70713          	addi	a4,a4,-241 # f0ef0f <__umodsi3+0xf0ef0f>
  a2:	0732                	slli	a4,a4,0xc
  a4:	0f170713          	addi	a4,a4,241
  a8:	0732                	slli	a4,a4,0xc
  aa:	f0f70713          	addi	a4,a4,-241
  ae:	8ef9                	and	a3,a3,a4
  b0:	01010737          	lui	a4,0x1010
  b4:	1017071b          	addiw	a4,a4,257
  b8:	0742                	slli	a4,a4,0x10
  ba:	10170713          	addi	a4,a4,257 # 1010101 <__umodsi3+0x1010101>
  be:	0742                	slli	a4,a4,0x10
  c0:	10170713          	addi	a4,a4,257
  c4:	02e686b3          	mul	a3,a3,a4
  c8:	92e1                	srli	a3,a3,0x38
  ca:	1681                	addi	a3,a3,-32
  cc:	c955                	beqz	a0,180 <__umodsi3+0x180>
  ce:	0015561b          	srliw	a2,a0,0x1
  d2:	02051713          	slli	a4,a0,0x20
  d6:	9301                	srli	a4,a4,0x20
  d8:	8e59                	or	a2,a2,a4
  da:	00265713          	srli	a4,a2,0x2
  de:	8e59                	or	a2,a2,a4
  e0:	00465713          	srli	a4,a2,0x4
  e4:	8e59                	or	a2,a2,a4
  e6:	00865713          	srli	a4,a2,0x8
  ea:	8e59                	or	a2,a2,a4
  ec:	01065713          	srli	a4,a2,0x10
  f0:	8e59                	or	a2,a2,a4
  f2:	02065713          	srli	a4,a2,0x20
  f6:	8e59                	or	a2,a2,a4
  f8:	05555737          	lui	a4,0x5555
  fc:	5557071b          	addiw	a4,a4,1365
 100:	0732                	slli	a4,a4,0xc
 102:	55570713          	addi	a4,a4,1365 # 5555555 <__umodsi3+0x5555555>
 106:	0732                	slli	a4,a4,0xc
 108:	55570713          	addi	a4,a4,1365
 10c:	0732                	slli	a4,a4,0xc
 10e:	55570713          	addi	a4,a4,1365
 112:	fff64613          	not	a2,a2
 116:	00165793          	srli	a5,a2,0x1
 11a:	8f7d                	and	a4,a4,a5
 11c:	8e19                	sub	a2,a2,a4
 11e:	03333737          	lui	a4,0x3333
 122:	3337071b          	addiw	a4,a4,819
 126:	0732                	slli	a4,a4,0xc
 128:	33370713          	addi	a4,a4,819 # 3333333 <__umodsi3+0x3333333>
 12c:	0732                	slli	a4,a4,0xc
 12e:	33370713          	addi	a4,a4,819
 132:	0732                	slli	a4,a4,0xc
 134:	33370713          	addi	a4,a4,819
 138:	00e677b3          	and	a5,a2,a4
 13c:	8209                	srli	a2,a2,0x2
 13e:	8e79                	and	a2,a2,a4
 140:	963e                	add	a2,a2,a5
 142:	00465713          	srli	a4,a2,0x4
 146:	963a                	add	a2,a2,a4
 148:	00f0f737          	lui	a4,0xf0f
 14c:	0f17071b          	addiw	a4,a4,241
 150:	0732                	slli	a4,a4,0xc
 152:	f0f70713          	addi	a4,a4,-241 # f0ef0f <__umodsi3+0xf0ef0f>
 156:	0732                	slli	a4,a4,0xc
 158:	0f170713          	addi	a4,a4,241
 15c:	0732                	slli	a4,a4,0xc
 15e:	f0f70713          	addi	a4,a4,-241
 162:	8e79                	and	a2,a2,a4
 164:	01010737          	lui	a4,0x1010
 168:	1017071b          	addiw	a4,a4,257
 16c:	0742                	slli	a4,a4,0x10
 16e:	10170713          	addi	a4,a4,257 # 1010101 <__umodsi3+0x1010101>
 172:	0742                	slli	a4,a4,0x10
 174:	10170713          	addi	a4,a4,257
 178:	02e60633          	mul	a2,a2,a4
 17c:	9261                	srli	a2,a2,0x38
 17e:	1601                	addi	a2,a2,-32
 180:	40c68833          	sub	a6,a3,a2
 184:	46fd                	li	a3,31
 186:	0106fa63          	bgeu	a3,a6,19a <__umodsi3+0x19a>
 18a:	4601                	li	a2,0
 18c:	02b605b3          	mul	a1,a2,a1
 190:	9d0d                	subw	a0,a0,a1
 192:	6402                	ld	s0,0(sp)
 194:	60a2                	ld	ra,8(sp)
 196:	0141                	addi	sp,sp,16
 198:	8082                	ret
 19a:	862a                	mv	a2,a0
 19c:	fed808e3          	beq	a6,a3,18c <__umodsi3+0x18c>
 1a0:	467d                	li	a2,31
 1a2:	41060633          	sub	a2,a2,a6
 1a6:	00180693          	addi	a3,a6,1
 1aa:	00d557bb          	srlw	a5,a0,a3
 1ae:	00c5133b          	sllw	t1,a0,a2
 1b2:	4281                	li	t0,0
 1b4:	4601                	li	a2,0
 1b6:	00179893          	slli	a7,a5,0x1
 1ba:	01f3579b          	srliw	a5,t1,0x1f
 1be:	00f8e7b3          	or	a5,a7,a5
 1c2:	fff7c713          	not	a4,a5
 1c6:	972e                	add	a4,a4,a1
 1c8:	41f7571b          	sraiw	a4,a4,0x1f
 1cc:	00b776b3          	and	a3,a4,a1
 1d0:	8f95                	sub	a5,a5,a3
 1d2:	00131693          	slli	a3,t1,0x1
 1d6:	00d2e333          	or	t1,t0,a3
 1da:	00160693          	addi	a3,a2,1
 1de:	00177293          	andi	t0,a4,1
 1e2:	0006071b          	sext.w	a4,a2
 1e6:	8636                	mv	a2,a3
 1e8:	fd0767e3          	bltu	a4,a6,1b6 <__umodsi3+0x1b6>
 1ec:	00131613          	slli	a2,t1,0x1
 1f0:	00c2e633          	or	a2,t0,a2
 1f4:	bf61                	j	18c <__umodsi3+0x18c>
 1f6:	00000097          	auipc	ra,0x0
 1fa:	000080e7          	jalr	ra # 1f6 <__umodsi3+0x1f6>
 1fe:	00000097          	auipc	ra,0x0
 202:	000080e7          	jalr	ra # 1fe <__umodsi3+0x1fe>

Disassembly of section .text.__udivmodsi4:

0000000000000000 <__udivmodsi4>:
   0:	1141                	addi	sp,sp,-16
   2:	e406                	sd	ra,8(sp)
   4:	e022                	sd	s0,0(sp)
   6:	0800                	addi	s0,sp,16
   8:	1e058f63          	beqz	a1,206 <__udivmodsi4+0x206>
   c:	18050263          	beqz	a0,190 <__udivmodsi4+0x190>
  10:	02000813          	li	a6,32
  14:	02000893          	li	a7,32
  18:	cdc5                	beqz	a1,d0 <__udivmodsi4+0xd0>
  1a:	0015d71b          	srliw	a4,a1,0x1
  1e:	02059793          	slli	a5,a1,0x20
  22:	9381                	srli	a5,a5,0x20
  24:	8f5d                	or	a4,a4,a5
  26:	00275793          	srli	a5,a4,0x2
  2a:	8f5d                	or	a4,a4,a5
  2c:	00475793          	srli	a5,a4,0x4
  30:	8f5d                	or	a4,a4,a5
  32:	00875793          	srli	a5,a4,0x8
  36:	8f5d                	or	a4,a4,a5
  38:	01075793          	srli	a5,a4,0x10
  3c:	8f5d                	or	a4,a4,a5
  3e:	02075793          	srli	a5,a4,0x20
  42:	8f5d                	or	a4,a4,a5
  44:	055557b7          	lui	a5,0x5555
  48:	5557879b          	addiw	a5,a5,1365
  4c:	07b2                	slli	a5,a5,0xc
  4e:	55578793          	addi	a5,a5,1365 # 5555555 <__udivmodsi4+0x5555555>
  52:	07b2                	slli	a5,a5,0xc
  54:	55578793          	addi	a5,a5,1365
  58:	07b2                	slli	a5,a5,0xc
  5a:	55578793          	addi	a5,a5,1365
  5e:	fff74713          	not	a4,a4
  62:	00175693          	srli	a3,a4,0x1
  66:	8efd                	and	a3,a3,a5
  68:	40d706b3          	sub	a3,a4,a3
  6c:	03333737          	lui	a4,0x3333
  70:	3337071b          	addiw	a4,a4,819
  74:	0732                	slli	a4,a4,0xc
  76:	33370713          	addi	a4,a4,819 # 3333333 <__udivmodsi4+0x3333333>
  7a:	0732                	slli	a4,a4,0xc
  7c:	33370713          	addi	a4,a4,819
  80:	0732                	slli	a4,a4,0xc
  82:	33370713          	addi	a4,a4,819
  86:	00e6f7b3          	and	a5,a3,a4
  8a:	8289                	srli	a3,a3,0x2
  8c:	8ef9                	and	a3,a3,a4
  8e:	96be                	add	a3,a3,a5
  90:	0046d713          	srli	a4,a3,0x4
  94:	96ba                	add	a3,a3,a4
  96:	00f0f737          	lui	a4,0xf0f
  9a:	0f17071b          	addiw	a4,a4,241
  9e:	0732                	slli	a4,a4,0xc
  a0:	f0f70713          	addi	a4,a4,-241 # f0ef0f <__udivmodsi4+0xf0ef0f>
  a4:	0732                	slli	a4,a4,0xc
  a6:	0f170713          	addi	a4,a4,241
  aa:	0732                	slli	a4,a4,0xc
  ac:	f0f70713          	addi	a4,a4,-241
  b0:	8ef9                	and	a3,a3,a4
  b2:	01010737          	lui	a4,0x1010
  b6:	1017071b          	addiw	a4,a4,257
  ba:	0742                	slli	a4,a4,0x10
  bc:	10170713          	addi	a4,a4,257 # 1010101 <__udivmodsi4+0x1010101>
  c0:	0742                	slli	a4,a4,0x10
  c2:	10170713          	addi	a4,a4,257
  c6:	02e686b3          	mul	a3,a3,a4
  ca:	92e1                	srli	a3,a3,0x38
  cc:	fe068893          	addi	a7,a3,-32
  d0:	c95d                	beqz	a0,186 <__udivmodsi4+0x186>
  d2:	0015569b          	srliw	a3,a0,0x1
  d6:	02051793          	slli	a5,a0,0x20
  da:	9381                	srli	a5,a5,0x20
  dc:	8edd                	or	a3,a3,a5
  de:	0026d793          	srli	a5,a3,0x2
  e2:	8edd                	or	a3,a3,a5
  e4:	0046d793          	srli	a5,a3,0x4
  e8:	8edd                	or	a3,a3,a5
  ea:	0086d793          	srli	a5,a3,0x8
  ee:	8edd                	or	a3,a3,a5
  f0:	0106d793          	srli	a5,a3,0x10
  f4:	8edd                	or	a3,a3,a5
  f6:	0206d793          	srli	a5,a3,0x20
  fa:	8edd                	or	a3,a3,a5
  fc:	055557b7          	lui	a5,0x5555
 100:	5557879b          	addiw	a5,a5,1365
 104:	07b2                	slli	a5,a5,0xc
 106:	55578793          	addi	a5,a5,1365 # 5555555 <__udivmodsi4+0x5555555>
 10a:	07b2                	slli	a5,a5,0xc
 10c:	55578793          	addi	a5,a5,1365
 110:	07b2                	slli	a5,a5,0xc
 112:	55578793          	addi	a5,a5,1365
 116:	fff6c693          	not	a3,a3
 11a:	0016d713          	srli	a4,a3,0x1
 11e:	8f7d                	and	a4,a4,a5
 120:	8e99                	sub	a3,a3,a4
 122:	03333737          	lui	a4,0x3333
 126:	3337071b          	addiw	a4,a4,819
 12a:	0732                	slli	a4,a4,0xc
 12c:	33370713          	addi	a4,a4,819 # 3333333 <__udivmodsi4+0x3333333>
 130:	0732                	slli	a4,a4,0xc
 132:	33370713          	addi	a4,a4,819
 136:	0732                	slli	a4,a4,0xc
 138:	33370713          	addi	a4,a4,819
 13c:	00e6f7b3          	and	a5,a3,a4
 140:	8289                	srli	a3,a3,0x2
 142:	8ef9                	and	a3,a3,a4
 144:	96be                	add	a3,a3,a5
 146:	0046d713          	srli	a4,a3,0x4
 14a:	96ba                	add	a3,a3,a4
 14c:	00f0f737          	lui	a4,0xf0f
 150:	0f17071b          	addiw	a4,a4,241
 154:	0732                	slli	a4,a4,0xc
 156:	f0f70713          	addi	a4,a4,-241 # f0ef0f <__udivmodsi4+0xf0ef0f>
 15a:	0732                	slli	a4,a4,0xc
 15c:	0f170713          	addi	a4,a4,241
 160:	0732                	slli	a4,a4,0xc
 162:	f0f70713          	addi	a4,a4,-241
 166:	8ef9                	and	a3,a3,a4
 168:	01010737          	lui	a4,0x1010
 16c:	1017071b          	addiw	a4,a4,257
 170:	0742                	slli	a4,a4,0x10
 172:	10170713          	addi	a4,a4,257 # 1010101 <__udivmodsi4+0x1010101>
 176:	0742                	slli	a4,a4,0x10
 178:	10170713          	addi	a4,a4,257
 17c:	02e686b3          	mul	a3,a3,a4
 180:	92e1                	srli	a3,a3,0x38
 182:	fe068813          	addi	a6,a3,-32
 186:	41088833          	sub	a6,a7,a6
 18a:	477d                	li	a4,31
 18c:	01077563          	bgeu	a4,a6,196 <__udivmodsi4+0x196>
 190:	4681                	li	a3,0
 192:	e225                	bnez	a2,1f2 <__udivmodsi4+0x1f2>
 194:	a09d                	j	1fa <__udivmodsi4+0x1fa>
 196:	86aa                	mv	a3,a0
 198:	04e80c63          	beq	a6,a4,1f0 <__udivmodsi4+0x1f0>
 19c:	46fd                	li	a3,31
 19e:	41068733          	sub	a4,a3,a6
 1a2:	00180693          	addi	a3,a6,1
 1a6:	00d556bb          	srlw	a3,a0,a3
 1aa:	00e5133b          	sllw	t1,a0,a4
 1ae:	4881                	li	a7,0
 1b0:	4781                	li	a5,0
 1b2:	00169293          	slli	t0,a3,0x1
 1b6:	01f3569b          	srliw	a3,t1,0x1f
 1ba:	00d2e6b3          	or	a3,t0,a3
 1be:	fff6c713          	not	a4,a3
 1c2:	972e                	add	a4,a4,a1
 1c4:	41f7529b          	sraiw	t0,a4,0x1f
 1c8:	00b2f733          	and	a4,t0,a1
 1cc:	8e99                	sub	a3,a3,a4
 1ce:	00131713          	slli	a4,t1,0x1
 1d2:	00e8e333          	or	t1,a7,a4
 1d6:	00178393          	addi	t2,a5,1
 1da:	0012f893          	andi	a7,t0,1
 1de:	0007871b          	sext.w	a4,a5
 1e2:	879e                	mv	a5,t2
 1e4:	fd0767e3          	bltu	a4,a6,1b2 <__udivmodsi4+0x1b2>
 1e8:	00131693          	slli	a3,t1,0x1
 1ec:	00d8e6b3          	or	a3,a7,a3
 1f0:	c609                	beqz	a2,1fa <__udivmodsi4+0x1fa>
 1f2:	02b685b3          	mul	a1,a3,a1
 1f6:	8d0d                	sub	a0,a0,a1
 1f8:	c208                	sw	a0,0(a2)
 1fa:	0006851b          	sext.w	a0,a3
 1fe:	6402                	ld	s0,0(sp)
 200:	60a2                	ld	ra,8(sp)
 202:	0141                	addi	sp,sp,16
 204:	8082                	ret
 206:	00000097          	auipc	ra,0x0
 20a:	000080e7          	jalr	ra # 206 <__udivmodsi4+0x206>
 20e:	00000097          	auipc	ra,0x0
 212:	000080e7          	jalr	ra # 20e <__udivmodsi4+0x20e>

Disassembly of section .text.__udivdi3:

0000000000000000 <__udivdi3>:
   0:	1141                	addi	sp,sp,-16
   2:	e406                	sd	ra,8(sp)
   4:	e022                	sd	s0,0(sp)
   6:	0800                	addi	s0,sp,16
   8:	4601                	li	a2,0
   a:	6402                	ld	s0,0(sp)
   c:	60a2                	ld	ra,8(sp)
   e:	0141                	addi	sp,sp,16
  10:	00000317          	auipc	t1,0x0
  14:	00030067          	jr	t1 # 10 <__udivdi3+0x10>

Disassembly of section .text.__umoddi3:

0000000000000000 <__umoddi3>:
   0:	1101                	addi	sp,sp,-32
   2:	ec06                	sd	ra,24(sp)
   4:	e822                	sd	s0,16(sp)
   6:	1000                	addi	s0,sp,32
   8:	fe043423          	sd	zero,-24(s0)
   c:	fe840613          	addi	a2,s0,-24
  10:	00000097          	auipc	ra,0x0
  14:	000080e7          	jalr	ra # 10 <__umoddi3+0x10>
  18:	fe843503          	ld	a0,-24(s0)
  1c:	6442                	ld	s0,16(sp)
  1e:	60e2                	ld	ra,24(sp)
  20:	6105                	addi	sp,sp,32
  22:	8082                	ret

Disassembly of section .text.__udivti3:

0000000000000000 <__udivti3>:
   0:	1141                	addi	sp,sp,-16
   2:	e406                	sd	ra,8(sp)
   4:	e022                	sd	s0,0(sp)
   6:	0800                	addi	s0,sp,16
   8:	4701                	li	a4,0
   a:	6402                	ld	s0,0(sp)
   c:	60a2                	ld	ra,8(sp)
   e:	0141                	addi	sp,sp,16
  10:	00000317          	auipc	t1,0x0
  14:	00030067          	jr	t1 # 10 <__udivti3+0x10>

Disassembly of section .text.__umodti3:

0000000000000000 <__umodti3>:
   0:	1101                	addi	sp,sp,-32
   2:	ec06                	sd	ra,24(sp)
   4:	e822                	sd	s0,16(sp)
   6:	1000                	addi	s0,sp,32
   8:	fe043423          	sd	zero,-24(s0)
   c:	fe043023          	sd	zero,-32(s0)
  10:	fe040713          	addi	a4,s0,-32
  14:	00000097          	auipc	ra,0x0
  18:	000080e7          	jalr	ra # 14 <__umodti3+0x14>
  1c:	fe843583          	ld	a1,-24(s0)
  20:	fe043503          	ld	a0,-32(s0)
  24:	6442                	ld	s0,16(sp)
  26:	60e2                	ld	ra,24(sp)
  28:	6105                	addi	sp,sp,32
  2a:	8082                	ret

Disassembly of section .text.__udivmoddi4:

0000000000000000 <__udivmoddi4>:
   0:	1141                	addi	sp,sp,-16
   2:	e406                	sd	ra,8(sp)
   4:	e022                	sd	s0,0(sp)
   6:	0800                	addi	s0,sp,16
   8:	42055693          	srai	a3,a0,0x20
   c:	18068a63          	beqz	a3,1a0 <__udivmoddi4+0x1a0>
  10:	02055813          	srli	a6,a0,0x20
  14:	0205d693          	srli	a3,a1,0x20
  18:	02059713          	slli	a4,a1,0x20
  1c:	02075793          	srli	a5,a4,0x20
  20:	1a078163          	beqz	a5,1c2 <__udivmoddi4+0x1c2>
  24:	26068363          	beqz	a3,28a <__udivmoddi4+0x28a>
  28:	02000893          	li	a7,32
  2c:	02000293          	li	t0,32
  30:	cac5                	beqz	a3,e0 <__udivmoddi4+0xe0>
  32:	0016d793          	srli	a5,a3,0x1
  36:	8edd                	or	a3,a3,a5
  38:	0026d793          	srli	a5,a3,0x2
  3c:	8edd                	or	a3,a3,a5
  3e:	0046d793          	srli	a5,a3,0x4
  42:	8edd                	or	a3,a3,a5
  44:	0086d793          	srli	a5,a3,0x8
  48:	8edd                	or	a3,a3,a5
  4a:	0106d793          	srli	a5,a3,0x10
  4e:	8edd                	or	a3,a3,a5
  50:	0206d793          	srli	a5,a3,0x20
  54:	8edd                	or	a3,a3,a5
  56:	055557b7          	lui	a5,0x5555
  5a:	5557879b          	addiw	a5,a5,1365
  5e:	07b2                	slli	a5,a5,0xc
  60:	55578793          	addi	a5,a5,1365 # 5555555 <__udivmoddi4+0x5555555>
  64:	07b2                	slli	a5,a5,0xc
  66:	55578793          	addi	a5,a5,1365
  6a:	07b2                	slli	a5,a5,0xc
  6c:	fff6c693          	not	a3,a3
  70:	55578793          	addi	a5,a5,1365
  74:	0016d713          	srli	a4,a3,0x1
  78:	8f7d                	and	a4,a4,a5
  7a:	8e99                	sub	a3,a3,a4
  7c:	03333737          	lui	a4,0x3333
  80:	3337071b          	addiw	a4,a4,819
  84:	0732                	slli	a4,a4,0xc
  86:	33370713          	addi	a4,a4,819 # 3333333 <__udivmoddi4+0x3333333>
  8a:	0732                	slli	a4,a4,0xc
  8c:	33370713          	addi	a4,a4,819
  90:	0732                	slli	a4,a4,0xc
  92:	33370713          	addi	a4,a4,819
  96:	00e6f7b3          	and	a5,a3,a4
  9a:	8289                	srli	a3,a3,0x2
  9c:	8ef9                	and	a3,a3,a4
  9e:	96be                	add	a3,a3,a5
  a0:	0046d713          	srli	a4,a3,0x4
  a4:	96ba                	add	a3,a3,a4
  a6:	00f0f737          	lui	a4,0xf0f
  aa:	0f17071b          	addiw	a4,a4,241
  ae:	0732                	slli	a4,a4,0xc
  b0:	f0f70713          	addi	a4,a4,-241 # f0ef0f <__udivmoddi4+0xf0ef0f>
  b4:	0732                	slli	a4,a4,0xc
  b6:	0f170713          	addi	a4,a4,241
  ba:	0732                	slli	a4,a4,0xc
  bc:	f0f70713          	addi	a4,a4,-241
  c0:	8ef9                	and	a3,a3,a4
  c2:	01010737          	lui	a4,0x1010
  c6:	1017071b          	addiw	a4,a4,257
  ca:	0742                	slli	a4,a4,0x10
  cc:	10170713          	addi	a4,a4,257 # 1010101 <__udivmoddi4+0x1010101>
  d0:	0742                	slli	a4,a4,0x10
  d2:	10170713          	addi	a4,a4,257
  d6:	02e686b3          	mul	a3,a3,a4
  da:	92e1                	srli	a3,a3,0x38
  dc:	fe068293          	addi	t0,a3,-32
  e0:	0a080a63          	beqz	a6,194 <__udivmoddi4+0x194>
  e4:	00185693          	srli	a3,a6,0x1
  e8:	00d866b3          	or	a3,a6,a3
  ec:	0026d713          	srli	a4,a3,0x2
  f0:	8ed9                	or	a3,a3,a4
  f2:	0046d713          	srli	a4,a3,0x4
  f6:	8ed9                	or	a3,a3,a4
  f8:	0086d713          	srli	a4,a3,0x8
  fc:	8ed9                	or	a3,a3,a4
  fe:	0106d713          	srli	a4,a3,0x10
 102:	8ed9                	or	a3,a3,a4
 104:	0206d713          	srli	a4,a3,0x20
 108:	8ed9                	or	a3,a3,a4
 10a:	05555737          	lui	a4,0x5555
 10e:	5557071b          	addiw	a4,a4,1365
 112:	0732                	slli	a4,a4,0xc
 114:	55570713          	addi	a4,a4,1365 # 5555555 <__udivmoddi4+0x5555555>
 118:	0732                	slli	a4,a4,0xc
 11a:	55570713          	addi	a4,a4,1365
 11e:	0732                	slli	a4,a4,0xc
 120:	fff6c693          	not	a3,a3
 124:	55570713          	addi	a4,a4,1365
 128:	0016d793          	srli	a5,a3,0x1
 12c:	8f7d                	and	a4,a4,a5
 12e:	8e99                	sub	a3,a3,a4
 130:	03333737          	lui	a4,0x3333
 134:	3337071b          	addiw	a4,a4,819
 138:	0732                	slli	a4,a4,0xc
 13a:	33370713          	addi	a4,a4,819 # 3333333 <__udivmoddi4+0x3333333>
 13e:	0732                	slli	a4,a4,0xc
 140:	33370713          	addi	a4,a4,819
 144:	0732                	slli	a4,a4,0xc
 146:	33370713          	addi	a4,a4,819
 14a:	00e6f7b3          	and	a5,a3,a4
 14e:	8289                	srli	a3,a3,0x2
 150:	8ef9                	and	a3,a3,a4
 152:	96be                	add	a3,a3,a5
 154:	0046d713          	srli	a4,a3,0x4
 158:	96ba                	add	a3,a3,a4
 15a:	00f0f737          	lui	a4,0xf0f
 15e:	0f17071b          	addiw	a4,a4,241
